(lp0
(lp1
S'409'
p2
aI2007
aS'RS'
p3
aS'1'
p4
aS'Regular Season A1'
p5
aS'VERO'
p6
aS'VERO'
p7
aa(lp8
S'100'
p9
aI2000
aS'RS'
p10
ag4
aS'Regular Season A1'
p11
aS'VERO'
p12
aS'VERO'
p13
aa(lp14
S'216'
p15
aI2003
aS'RS'
p16
ag4
aS'Regular Season A1'
p17
aS'VERO'
p18
aS'VERO'
p19
aa(lp20
S'573'
p21
aI2012
aS'RS'
p22
ag4
aS'Regular Season A1'
p23
aS'FALSO'
p24
aS'VERO'
p25
aa(lp26
S'648'
p27
aI2016
aS'RS'
p28
ag4
aS'Regular Season SuperLega UnipolSai'
p29
aS'VERO'
p30
aS'VERO'
p31
aa(lp32
S'354'
p33
aI2006
aS'RS'
p34
ag4
aS'Regular Season A1'
p35
aS'VERO'
p36
aS'VERO'
p37
aa(lp38
S'676'
p39
aI2017
aS'RS'
p40
ag4
aS'Regular Season SuperLega UnipolSai'
p41
aS'VERO'
p42
aS'VERO'
p43
aa(lp44
S'118'
p45
aI2002
aS'RS'
p46
ag4
aS'Regular Season A1'
p47
aS'VERO'
p48
aS'VERO'
p49
aa(lp50
S'610'
p51
aI2014
aS'RS'
p52
ag4
aS'Regular Season SuperLega UnipolSai'
p53
aS'VERO'
p54
aS'VERO'
p55
aa(lp56
S'540'
p57
aI2011
aS'RS'
p58
ag4
aS'Regular Season A1'
p59
aS'FALSO'
p60
aS'VERO'
p61
aa(lp62
S'592'
p63
aI2013
aS'RS'
p64
ag4
aS'Regular Season A1'
p65
aS'VERO'
p66
aS'VERO'
p67
aa(lp68
S'463'
p69
aI2008
aS'RS'
p70
ag4
aS'Regular Season A1'
p71
aS'VERO'
p72
aS'VERO'
p73
aa(lp74
S'248'
p75
aI2005
aS'RS'
p76
ag4
aS'Regular Season A1'
p77
aS'VERO'
p78
aS'VERO'
p79
aa(lp80
S'488'
p81
aI2009
aS'RS'
p82
ag4
aS'Regular Season A1'
p83
aS'VERO'
p84
aS'VERO'
p85
aa(lp86
S'506'
p87
aI2010
aS'RS'
p88
ag4
aS'Regular Season A1'
p89
aS'VERO'
p90
aS'VERO'
p91
aa(lp92
S'227'
p93
aI2004
aS'RS'
p94
ag4
aS'Regular Season A1'
p95
aS'VERO'
p96
aS'VERO'
p97
aa(lp98
S'105'
p99
aI2001
aS'RS'
p100
ag4
aS'Regular Season A1'
p101
aS'VERO'
p102
aS'VERO'
p103
aa(lp104
S'628'
p105
aI2015
aS'RS'
p106
ag4
aS'Regular Season SuperLega'
p107
aS'VERO'
p108
aS'VERO'
p109
aa.