(lp0
(lp1
S'603'
p2
aS'100'
p3
aS'1'
p4
ag4
aS'1a giornata'
p5
aS'15/10/2000'
p6
aI13
aa(lp7
S'604'
p8
aS'100'
p9
ag4
aS'2'
p10
aS'2a giornata'
p11
aS'22/10/2000'
p12
aI13
aa(lp13
S'605'
p14
aS'100'
p15
ag4
aS'3'
p16
aS'3a giornata'
p17
aS'29/10/2000'
p18
aI13
aa(lp19
S'606'
p20
aS'100'
p21
ag4
aS'4'
p22
aS'4a giornata'
p23
aS'01/11/2000'
p24
aI13
aa(lp25
S'607'
p26
aS'100'
p27
ag4
aS'5'
p28
aS'5a giornata'
p29
aS'05/11/2000'
p30
aI13
aa(lp31
S'608'
p32
aS'100'
p33
ag4
aS'6'
p34
aS'6a giornata'
p35
aS'12/11/2000'
p36
aI13
aa(lp37
S'609'
p38
aS'100'
p39
ag4
aS'7'
p40
aS'7a giornata'
p41
aS'19/11/2000'
p42
aI13
aa(lp43
S'610'
p44
aS'100'
p45
ag4
aS'8'
p46
aS'8a giornata'
p47
aS'26/11/2000'
p48
aI13
aa(lp49
S'611'
p50
aS'100'
p51
ag4
aS'9'
p52
aS'9a giornata'
p53
aS'03/12/2000'
p54
aI13
aa(lp55
S'612'
p56
aS'100'
p57
ag4
aS'10'
p58
aS'10a giornata'
p59
aS'08/12/2000'
p60
aI13
aa(lp61
S'613'
p62
aS'100'
p63
ag4
aS'11'
p64
aS'11a giornata'
p65
aS'10/12/2000'
p66
aI13
aa(lp67
S'614'
p68
aS'100'
p69
ag4
aS'12'
p70
aS'12a giornata'
p71
aS'17/12/2000'
p72
aI13
aa(lp73
S'615'
p74
aS'100'
p75
ag4
aS'13'
p76
aS'13a giornata'
p77
aS'23/12/2000'
p78
aI13
aa(lp79
S'616'
p80
aS'100'
p81
ag10
ag4
aS'1a giornata'
p82
aS'30/12/2000'
p83
aI13
aa(lp84
S'617'
p85
aS'100'
p86
ag10
ag10
aS'2a giornata'
p87
aS'05/01/2001'
p88
aI13
aa(lp89
S'618'
p90
aS'100'
p91
ag10
ag16
aS'3a giornata'
p92
aS'07/01/2001'
p93
aI13
aa(lp94
S'619'
p95
aS'100'
p96
ag10
ag22
aS'4a giornata'
p97
aS'14/01/2001'
p98
aI13
aa(lp99
S'620'
p100
aS'100'
p101
ag10
ag28
aS'5a giornata'
p102
aS'21/01/2001'
p103
aI13
aa(lp104
S'621'
p105
aS'100'
p106
ag10
ag34
aS'6a giornata'
p107
aS'28/01/2001'
p108
aI13
aa(lp109
S'622'
p110
aS'100'
p111
ag10
ag40
aS'7a giornata'
p112
aS'11/02/2001'
p113
aI13
aa(lp114
S'623'
p115
aS'100'
p116
ag10
ag46
aS'8a giornata'
p117
aS'18/02/2001'
p118
aI13
aa(lp119
S'624'
p120
aS'100'
p121
ag10
ag52
aS'9a giornata'
p122
aS'25/02/2001'
p123
aI13
aa(lp124
S'625'
p125
aS'100'
p126
ag10
aS'10'
p127
aS'10a giornata'
p128
aS'04/03/2001'
p129
aI13
aa(lp130
S'626'
p131
aS'100'
p132
ag10
aS'11'
p133
aS'11a giornata'
p134
aS'11/03/2001'
p135
aI13
aa(lp136
S'627'
p137
aS'100'
p138
ag10
aS'12'
p139
aS'12a giornata'
p140
aS'17/03/2001'
p141
aI13
aa(lp142
S'628'
p143
aS'100'
p144
ag10
aS'13'
p145
aS'13a giornata'
p146
aS'20/03/2001'
p147
aI13
aa(lp148
S'673'
p149
aS'105'
p150
ag4
ag4
aS'1a giornata'
p151
aS'30/09/2001'
p152
aI13
aa(lp153
S'674'
p154
aS'105'
p155
ag4
ag10
aS'2a giornata'
p156
aS'07/10/2001'
p157
aI13
aa(lp158
S'675'
p159
aS'105'
p160
ag4
ag16
aS'3a giornata'
p161
aS'11/10/2001'
p162
aI13
aa(lp163
S'676'
p164
aS'105'
p165
ag4
ag22
aS'4a giornata'
p166
aS'14/10/2001'
p167
aI13
aa(lp168
S'677'
p169
aS'105'
p170
ag4
ag28
aS'5a giornata'
p171
aS'17/10/2001'
p172
aI13
aa(lp173
S'678'
p174
aS'105'
p175
ag4
ag34
aS'6a giornata'
p176
aS'21/10/2001'
p177
aI13
aa(lp178
S'679'
p179
aS'105'
p180
ag4
ag40
aS'7a giornata'
p181
aS'28/10/2001'
p182
aI13
aa(lp183
S'680'
p184
aS'105'
p185
ag4
ag46
aS'8a giornata'
p186
aS'01/11/2001'
p187
aI13
aa(lp188
S'681'
p189
aS'105'
p190
ag4
ag52
aS'9a giornata'
p191
aS'04/11/2001'
p192
aI13
aa(lp193
S'682'
p194
aS'105'
p195
ag4
aS'10'
p196
aS'10a giornata'
p197
aS'11/11/2001'
p198
aI13
aa(lp199
S'683'
p200
aS'105'
p201
ag4
aS'11'
p202
aS'11a giornata'
p203
aS'02/12/2001'
p204
aI13
aa(lp205
S'684'
p206
aS'105'
p207
ag4
aS'12'
p208
aS'12a giornata'
p209
aS'09/12/2001'
p210
aI13
aa(lp211
S'685'
p212
aS'105'
p213
ag4
aS'13'
p214
aS'13a giornata'
p215
aS'16/12/2001'
p216
aI13
aa(lp217
S'686'
p218
aS'105'
p219
ag10
ag4
aS'1a giornata'
p220
aS'23/12/2001'
p221
aI13
aa(lp222
S'687'
p223
aS'105'
p224
ag10
ag10
aS'2a giornata'
p225
aS'30/12/2001'
p226
aI13
aa(lp227
S'688'
p228
aS'105'
p229
ag10
ag16
aS'3a giornata'
p230
aS'06/01/2002'
p231
aI13
aa(lp232
S'689'
p233
aS'105'
p234
ag10
ag22
aS'4a giornata'
p235
aS'13/01/2002'
p236
aI13
aa(lp237
S'690'
p238
aS'105'
p239
ag10
ag28
aS'5a giornata'
p240
aS'20/01/2002'
p241
aI13
aa(lp242
S'691'
p243
aS'105'
p244
ag10
ag34
aS'6a giornata'
p245
aS'27/01/2002'
p246
aI13
aa(lp247
S'692'
p248
aS'105'
p249
ag10
ag40
aS'7a giornata'
p250
aS'10/02/2002'
p251
aI13
aa(lp252
S'693'
p253
aS'105'
p254
ag10
ag46
aS'8a giornata'
p255
aS'17/02/2002'
p256
aI13
aa(lp257
S'694'
p258
aS'105'
p259
ag10
ag52
aS'9a giornata'
p260
aS'24/02/2002'
p261
aI13
aa(lp262
S'695'
p263
aS'105'
p264
ag10
aS'10'
p265
aS'10a giornata'
p266
aS'03/03/2002'
p267
aI13
aa(lp268
S'696'
p269
aS'105'
p270
ag10
aS'11'
p271
aS'11a giornata'
p272
aS'10/03/2002'
p273
aI13
aa(lp274
S'697'
p275
aS'105'
p276
ag10
aS'12'
p277
aS'12a giornata'
p278
aS'16/03/2002'
p279
aI13
aa(lp280
S'698'
p281
aS'105'
p282
ag10
aS'13'
p283
aS'13a giornata'
p284
aS'19/03/2002'
p285
aI13
aa(lp286
S'761'
p287
aS'118'
p288
ag4
ag4
aS'1\xaa Giornata'
p289
aS'27/10/2002'
p290
aI13
aa(lp291
S'772'
p292
aS'118'
p293
ag4
ag10
aS'2\xaa Giornata'
p294
aS'03/11/2002'
p295
aI13
aa(lp296
S'774'
p297
aS'118'
p298
ag4
ag16
aS'3\xaa Giornata'
p299
aS'06/11/2002'
p300
aI13
aa(lp301
S'777'
p302
aS'118'
p303
ag4
ag22
aS'4\xaa Giornata'
p304
aS'10/11/2002'
p305
aI13
aa(lp306
S'779'
p307
aS'118'
p308
ag4
ag28
aS'5\xaa Giornata'
p309
aS'17/11/2002'
p310
aI13
aa(lp311
S'780'
p312
aS'118'
p313
ag4
ag34
aS'6\xaa Giornata'
p314
aS'20/11/2002'
p315
aI13
aa(lp316
S'782'
p317
aS'118'
p318
ag4
ag40
aS'7\xaa Giornata'
p319
aS'24/11/2002'
p320
aI13
aa(lp321
S'784'
p322
aS'118'
p323
ag4
ag46
aS'8\xaa Giornata'
p324
aS'01/12/2002'
p325
aI13
aa(lp326
S'785'
p327
aS'118'
p328
ag4
ag52
aS'9\xaa Giornata'
p329
aS'08/12/2002'
p330
aI13
aa(lp331
S'787'
p332
aS'118'
p333
ag4
aS'10'
p334
aS'10\xaa Giornata'
p335
aS'15/12/2002'
p336
aI13
aa(lp337
S'789'
p338
aS'118'
p339
ag4
aS'11'
p340
aS'11\xaa Giornata'
p341
aS'22/12/2002'
p342
aI13
aa(lp343
S'799'
p344
aS'118'
p345
ag4
aS'12'
p346
aS'12\xaa Giornata'
p347
aS'29/12/2002'
p348
aI13
aa(lp349
S'800'
p350
aS'118'
p351
ag4
aS'13'
p352
aS'13\xaa Giornata'
p353
aS'05/01/2003'
p354
aI13
aa(lp355
S'801'
p356
aS'118'
p357
ag10
ag4
aS'1\xaa Giornata'
p358
aS'12/01/2003'
p359
aI13
aa(lp360
S'802'
p361
aS'118'
p362
ag10
ag10
aS'2\xaa Giornata'
p363
aS'19/01/2003'
p364
aI13
aa(lp365
S'803'
p366
aS'118'
p367
ag10
ag16
aS'3\xaa Giornata'
p368
aS'26/01/2003'
p369
aI13
aa(lp370
S'804'
p371
aS'118'
p372
ag10
ag22
aS'4\xaa Giornata'
p373
aS'09/02/2003'
p374
aI13
aa(lp375
S'805'
p376
aS'118'
p377
ag10
ag28
aS'5\xaa Giornata'
p378
aS'16/02/2003'
p379
aI13
aa(lp380
S'806'
p381
aS'118'
p382
ag10
ag34
aS'6\xaa Giornata'
p383
aS'23/02/2003'
p384
aI13
aa(lp385
S'807'
p386
aS'118'
p387
ag10
ag40
aS'7\xaa Giornata'
p388
aS'02/03/2003'
p389
aI13
aa(lp390
S'808'
p391
aS'118'
p392
ag10
ag46
aS'8\xaa Giornata'
p393
aS'09/03/2003'
p394
aI13
aa(lp395
S'809'
p396
aS'118'
p397
ag10
ag52
aS'9\xaa Giornata'
p398
aS'16/03/2003'
p399
aI13
aa(lp400
S'810'
p401
aS'118'
p402
ag10
aS'10'
p403
aS'10\xaa Giornata'
p404
aS'21/03/2003'
p405
aI13
aa(lp406
S'811'
p407
aS'118'
p408
ag10
aS'11'
p409
aS'11\xaa Giornata'
p410
aS'30/03/2003'
p411
aI13
aa(lp412
S'812'
p413
aS'118'
p414
ag10
aS'12'
p415
aS'12\xaa Giornata'
p416
aS'02/04/2003'
p417
aI13
aa(lp418
S'813'
p419
aS'118'
p420
ag10
aS'13'
p421
aS'13\xaa Giornata'
p422
aS'05/04/2003'
p423
aI13
aa(lp424
S'1234'
p425
aS'216'
p426
ag4
ag4
aS'1\xaa Giornata'
p427
aS'21/09/2003'
p428
aI13
aa(lp429
S'1235'
p430
aS'216'
p431
ag4
ag10
aS'2\xaa Giornata'
p432
aS'28/09/2003'
p433
aI13
aa(lp434
S'1236'
p435
aS'216'
p436
ag4
ag16
aS'3\xaa Giornata'
p437
aS'05/10/2003'
p438
aI13
aa(lp439
S'1237'
p440
aS'216'
p441
ag4
ag22
aS'4\xaa Giornata'
p442
aS'08/10/2003'
p443
aI13
aa(lp444
S'1238'
p445
aS'216'
p446
ag4
ag28
aS'5\xaa Giornata'
p447
aS'12/10/2003'
p448
aI13
aa(lp449
S'1239'
p450
aS'216'
p451
ag4
ag34
aS'6\xaa Giornata'
p452
aS'19/10/2003'
p453
aI13
aa(lp454
S'1240'
p455
aS'216'
p456
ag4
ag40
aS'7\xaa Giornata'
p457
aS'26/10/2003'
p458
aI13
aa(lp459
S'1241'
p460
aS'216'
p461
ag4
ag46
aS'8\xaa Giornata'
p462
aS'29/10/2003'
p463
aI13
aa(lp464
S'1242'
p465
aS'216'
p466
ag4
ag52
aS'9\xaa Giornata'
p467
aS'01/11/2003'
p468
aI13
aa(lp469
S'1243'
p470
aS'216'
p471
ag4
aS'10'
p472
aS'10\xaa Giornata'
p473
aS'07/12/2003'
p474
aI13
aa(lp475
S'1244'
p476
aS'216'
p477
ag4
aS'11'
p478
aS'11\xaa Giornata'
p479
aS'14/12/2003'
p480
aI13
aa(lp481
S'1245'
p482
aS'216'
p483
ag4
aS'12'
p484
aS'12\xaa Giornata'
p485
aS'21/12/2003'
p486
aI13
aa(lp487
S'1246'
p488
aS'216'
p489
ag4
aS'13'
p490
aS'13\xaa Giornata'
p491
aS'23/12/2003'
p492
aI13
aa(lp493
S'1247'
p494
aS'216'
p495
ag10
ag4
aS'1\xaa Giornata'
p496
aS'11/01/2004'
p497
aI13
aa(lp498
S'1248'
p499
aS'216'
p500
ag10
ag10
aS'2\xaa Giornata'
p501
aS'18/01/2004'
p502
aI13
aa(lp503
S'1249'
p504
aS'216'
p505
ag10
ag16
aS'3\xaa Giornata'
p506
aS'25/01/2004'
p507
aI13
aa(lp508
S'1250'
p509
aS'216'
p510
ag10
ag22
aS'4\xaa Giornata'
p511
aS'01/02/2004'
p512
aI13
aa(lp513
S'1251'
p514
aS'216'
p515
ag10
ag28
aS'5\xaa Giornata'
p516
aS'08/02/2004'
p517
aI13
aa(lp518
S'1252'
p519
aS'216'
p520
ag10
ag34
aS'6\xaa Giornata'
p521
aS'18/02/2004'
p522
aI13
aa(lp523
S'1253'
p524
aS'216'
p525
ag10
ag40
aS'7\xaa Giornata'
p526
aS'22/02/2004'
p527
aI13
aa(lp528
S'1254'
p529
aS'216'
p530
ag10
ag46
aS'8\xaa Giornata'
p531
aS'29/02/2004'
p532
aI13
aa(lp533
S'1255'
p534
aS'216'
p535
ag10
ag52
aS'9\xaa Giornata'
p536
aS'07/03/2004'
p537
aI13
aa(lp538
S'1256'
p539
aS'216'
p540
ag10
aS'10'
p541
aS'10\xaa Giornata'
p542
aS'14/03/2004'
p543
aI13
aa(lp544
S'1257'
p545
aS'216'
p546
ag10
aS'11'
p547
aS'11\xaa Giornata'
p548
aS'17/03/2004'
p549
aI13
aa(lp550
S'1258'
p551
aS'216'
p552
ag10
aS'12'
p553
aS'12\xaa Giornata'
p554
aS'21/03/2004'
p555
aI13
aa(lp556
S'1259'
p557
aS'216'
p558
ag10
aS'13'
p559
aS'13\xaa Giornata'
p560
aS'28/03/2004'
p561
aI13
aa(lp562
S'1320'
p563
aS'227'
p564
ag4
ag4
aS'1\xaa Giornata'
p565
aS'26/09/2004'
p566
aI13
aa(lp567
S'1321'
p568
aS'227'
p569
ag4
ag10
aS'2\xaa Giornata'
p570
aS'03/10/2004'
p571
aI13
aa(lp572
S'1322'
p573
aS'227'
p574
ag4
ag16
aS'3\xaa Giornata'
p575
aS'10/10/2004'
p576
aI13
aa(lp577
S'1323'
p578
aS'227'
p579
ag4
ag22
aS'4\xaa Giornata'
p580
aS'17/10/2004'
p581
aI13
aa(lp582
S'1324'
p583
aS'227'
p584
ag4
ag28
aS'5\xaa Giornata'
p585
aS'24/10/2004'
p586
aI13
aa(lp587
S'1325'
p588
aS'227'
p589
ag4
ag34
aS'6\xaa Giornata'
p590
aS'07/11/2004'
p591
aI13
aa(lp592
S'1326'
p593
aS'227'
p594
ag4
ag40
aS'7\xaa Giornata'
p595
aS'14/11/2004'
p596
aI13
aa(lp597
S'1327'
p598
aS'227'
p599
ag4
ag46
aS'8\xaa Giornata'
p600
aS'21/11/2004'
p601
aI13
aa(lp602
S'1328'
p603
aS'227'
p604
ag4
ag52
aS'9\xaa Giornata'
p605
aS'28/11/2004'
p606
aI13
aa(lp607
S'1329'
p608
aS'227'
p609
ag4
aS'10'
p610
aS'10\xaa Giornata'
p611
aS'05/12/2004'
p612
aI13
aa(lp613
S'1330'
p614
aS'227'
p615
ag4
aS'11'
p616
aS'11\xaa Giornata'
p617
aS'12/12/2004'
p618
aI13
aa(lp619
S'1331'
p620
aS'227'
p621
ag4
aS'12'
p622
aS'12\xaa Giornata'
p623
aS'19/12/2004'
p624
aI13
aa(lp625
S'1332'
p626
aS'227'
p627
ag4
aS'13'
p628
aS'13\xaa Giornata'
p629
aS'29/12/2004'
p630
aI13
aa(lp631
S'1333'
p632
aS'227'
p633
ag10
ag4
aS'1\xaa Giornata'
p634
aS'09/01/2005'
p635
aI13
aa(lp636
S'1334'
p637
aS'227'
p638
ag10
ag10
aS'2\xaa Giornata'
p639
aS'16/01/2005'
p640
aI13
aa(lp641
S'1335'
p642
aS'227'
p643
ag10
ag16
aS'3\xaa Giornata'
p644
aS'23/01/2005'
p645
aI13
aa(lp646
S'1336'
p647
aS'227'
p648
ag10
ag22
aS'4\xaa Giornata'
p649
aS'30/01/2005'
p650
aI13
aa(lp651
S'1337'
p652
aS'227'
p653
ag10
ag28
aS'5\xaa Giornata'
p654
aS'06/02/2005'
p655
aI13
aa(lp656
S'1338'
p657
aS'227'
p658
ag10
ag34
aS'6\xaa Giornata'
p659
aS'13/02/2005'
p660
aI13
aa(lp661
S'1339'
p662
aS'227'
p663
ag10
ag40
aS'7\xaa Giornata'
p664
aS'20/02/2005'
p665
aI13
aa(lp666
S'1340'
p667
aS'227'
p668
ag10
ag46
aS'8\xaa Giornata'
p669
aS'06/03/2005'
p670
aI13
aa(lp671
S'1341'
p672
aS'227'
p673
ag10
ag52
aS'9\xaa Giornata'
p674
aS'13/03/2005'
p675
aI13
aa(lp676
S'1342'
p677
aS'227'
p678
ag10
aS'10'
p679
aS'10\xaa Giornata'
p680
aS'20/03/2005'
p681
aI13
aa(lp682
S'1343'
p683
aS'227'
p684
ag10
aS'11'
p685
aS'11\xaa Giornata'
p686
aS'26/03/2005'
p687
aI13
aa(lp688
S'1344'
p689
aS'227'
p690
ag10
aS'12'
p691
aS'12\xaa Giornata'
p692
aS'31/03/2005'
p693
aI13
aa(lp694
S'1345'
p695
aS'227'
p696
ag10
aS'13'
p697
aS'13\xaa Giornata'
p698
aS'04/04/2005'
p699
aI13
aa(lp700
S'1420'
p701
aS'248'
p702
ag4
ag4
aS'1\xaa Giornata'
p703
aS'25/09/2005'
p704
aI13
aa(lp705
S'1421'
p706
aS'248'
p707
ag4
ag10
aS'2\xaa Giornata'
p708
aS'02/10/2005'
p709
aI13
aa(lp710
S'1422'
p711
aS'248'
p712
ag4
ag16
aS'3\xaa Giornata'
p713
aS'09/10/2005'
p714
aI13
aa(lp715
S'1423'
p716
aS'248'
p717
ag4
ag22
aS'4\xaa Giornata'
p718
aS'12/10/2005'
p719
aI13
aa(lp720
S'1424'
p721
aS'248'
p722
ag4
ag28
aS'5\xaa Giornata'
p723
aS'16/10/2005'
p724
aI13
aa(lp725
S'1425'
p726
aS'248'
p727
ag4
ag34
aS'6\xaa Giornata'
p728
aS'23/10/2005'
p729
aI13
aa(lp730
S'1426'
p731
aS'248'
p732
ag4
ag40
aS'7\xaa Giornata'
p733
aS'30/10/2005'
p734
aI13
aa(lp735
S'1427'
p736
aS'248'
p737
ag4
ag46
aS'8\xaa Giornata'
p738
aS'06/11/2005'
p739
aI13
aa(lp740
S'1428'
p741
aS'248'
p742
ag4
ag52
aS'9\xaa Giornata'
p743
aS'13/11/2005'
p744
aI13
aa(lp745
S'1429'
p746
aS'248'
p747
ag4
aS'10'
p748
aS'10\xaa Giornata'
p749
aS'04/12/2005'
p750
aI13
aa(lp751
S'1430'
p752
aS'248'
p753
ag4
aS'11'
p754
aS'11\xaa Giornata'
p755
aS'11/12/2005'
p756
aI13
aa(lp757
S'1431'
p758
aS'248'
p759
ag4
aS'12'
p760
aS'12\xaa Giornata'
p761
aS'18/12/2005'
p762
aI13
aa(lp763
S'1432'
p764
aS'248'
p765
ag4
aS'13'
p766
aS'13\xaa Giornata'
p767
aS'26/12/2005'
p768
aI13
aa(lp769
S'1433'
p770
aS'248'
p771
ag10
ag4
aS'1\xaa Giornata'
p772
aS'08/01/2006'
p773
aI13
aa(lp774
S'1434'
p775
aS'248'
p776
ag10
ag10
aS'2\xaa Giornata'
p777
aS'15/01/2006'
p778
aI13
aa(lp779
S'1435'
p780
aS'248'
p781
ag10
ag16
aS'3\xaa Giornata'
p782
aS'22/01/2006'
p783
aI13
aa(lp784
S'1436'
p785
aS'248'
p786
ag10
ag22
aS'4\xaa Giornata'
p787
aS'02/02/2006'
p788
aI13
aa(lp789
S'1437'
p790
aS'248'
p791
ag10
ag28
aS'5\xaa Giornata'
p792
aS'05/02/2006'
p793
aI13
aa(lp794
S'1438'
p795
aS'248'
p796
ag10
ag34
aS'6\xaa Giornata'
p797
aS'12/02/2006'
p798
aI13
aa(lp799
S'1439'
p800
aS'248'
p801
ag10
ag40
aS'7\xaa Giornata'
p802
aS'19/02/2006'
p803
aI13
aa(lp804
S'1440'
p805
aS'248'
p806
ag10
ag46
aS'8\xaa Giornata'
p807
aS'26/02/2006'
p808
aI13
aa(lp809
S'1441'
p810
aS'248'
p811
ag10
ag52
aS'9\xaa Giornata'
p812
aS'05/03/2006'
p813
aI13
aa(lp814
S'1442'
p815
aS'248'
p816
ag10
aS'10'
p817
aS'10\xaa Giornata'
p818
aS'12/03/2006'
p819
aI13
aa(lp820
S'1443'
p821
aS'248'
p822
ag10
aS'11'
p823
aS'11\xaa Giornata'
p824
aS'19/03/2006'
p825
aI13
aa(lp826
S'1444'
p827
aS'248'
p828
ag10
aS'12'
p829
aS'12\xaa Giornata'
p830
aS'26/03/2006'
p831
aI13
aa(lp832
S'1445'
p833
aS'248'
p834
ag10
aS'13'
p835
aS'13\xaa Giornata'
p836
aS'02/04/2006'
p837
aI13
aa(lp838
S'2044'
p839
aS'354'
p840
ag4
ag4
aS'1\xaa Giornata'
p841
aS'10/09/2006'
p842
aI13
aa(lp843
S'2045'
p844
aS'354'
p845
ag4
ag10
aS'2\xaa Giornata'
p846
aS'17/09/2006'
p847
aI13
aa(lp848
S'2046'
p849
aS'354'
p850
ag4
ag16
aS'3\xaa Giornata'
p851
aS'20/09/2006'
p852
aI13
aa(lp853
S'2047'
p854
aS'354'
p855
ag4
ag22
aS'4\xaa Giornata'
p856
aS'24/09/2006'
p857
aI13
aa(lp858
S'2048'
p859
aS'354'
p860
ag4
ag28
aS'5\xaa Giornata'
p861
aS'01/10/2006'
p862
aI13
aa(lp863
S'2049'
p864
aS'354'
p865
ag4
ag34
aS'6\xaa Giornata'
p866
aS'08/10/2006'
p867
aI13
aa(lp868
S'2050'
p869
aS'354'
p870
ag4
ag40
aS'7\xaa Giornata'
p871
aS'15/10/2006'
p872
aI13
aa(lp873
S'2051'
p874
aS'354'
p875
ag4
ag46
aS'8\xaa Giornata'
p876
aS'10/12/2006'
p877
aI13
aa(lp878
S'2052'
p879
aS'354'
p880
ag4
ag52
aS'9\xaa Giornata'
p881
aS'17/12/2006'
p882
aI13
aa(lp883
S'2053'
p884
aS'354'
p885
ag4
aS'10'
p886
aS'10\xaa Giornata'
p887
aS'26/12/2006'
p888
aI13
aa(lp889
S'2054'
p890
aS'354'
p891
ag4
aS'11'
p892
aS'11\xaa Giornata'
p893
aS'30/12/2006'
p894
aI13
aa(lp895
S'2055'
p896
aS'354'
p897
ag4
aS'12'
p898
aS'12\xaa Giornata'
p899
aS'07/01/2007'
p900
aI13
aa(lp901
S'2056'
p902
aS'354'
p903
ag4
aS'13'
p904
aS'13\xaa Giornata'
p905
aS'14/01/2007'
p906
aI13
aa(lp907
S'2057'
p908
aS'354'
p909
ag10
ag4
aS'1\xaa Giornata'
p910
aS'21/01/2007'
p911
aI13
aa(lp912
S'2058'
p913
aS'354'
p914
ag10
ag10
aS'2\xaa Giornata'
p915
aS'28/01/2007'
p916
aI13
aa(lp917
S'2059'
p918
aS'354'
p919
ag10
ag16
aS'3\xaa Giornata'
p920
aS'04/02/2007'
p921
aI13
aa(lp922
S'2060'
p923
aS'354'
p924
ag10
ag22
aS'4\xaa Giornata'
p925
aS'11/02/2007'
p926
aI13
aa(lp927
S'2061'
p928
aS'354'
p929
ag10
ag28
aS'5\xaa Giornata'
p930
aS'18/02/2007'
p931
aI13
aa(lp932
S'2062'
p933
aS'354'
p934
ag10
ag34
aS'6\xaa Giornata'
p935
aS'25/02/2007'
p936
aI13
aa(lp937
S'2063'
p938
aS'354'
p939
ag10
ag40
aS'7\xaa Giornata'
p940
aS'11/03/2007'
p941
aI13
aa(lp942
S'2064'
p943
aS'354'
p944
ag10
ag46
aS'8\xaa Giornata'
p945
aS'18/03/2007'
p946
aI13
aa(lp947
S'2065'
p948
aS'354'
p949
ag10
ag52
aS'9\xaa Giornata'
p950
aS'21/03/2007'
p951
aI13
aa(lp952
S'2066'
p953
aS'354'
p954
ag10
aS'10'
p955
aS'10\xaa Giornata'
p956
aS'25/03/2007'
p957
aI13
aa(lp958
S'2067'
p959
aS'354'
p960
ag10
aS'11'
p961
aS'11\xaa Giornata'
p962
aS'01/04/2007'
p963
aI13
aa(lp964
S'2068'
p965
aS'354'
p966
ag10
aS'12'
p967
aS'12\xaa Giornata'
p968
aS'07/04/2007'
p969
aI13
aa(lp970
S'2069'
p971
aS'354'
p972
ag10
aS'13'
p973
aS'13\xaa Giornata'
p974
aS'11/04/2007'
p975
aI13
aa(lp976
S'3194'
p977
aS'409'
p978
ag4
ag4
aS'1\xaa Giornata'
p979
aS'30/09/2007'
p980
aI13
aa(lp981
S'3195'
p982
aS'409'
p983
ag4
ag10
aS'2\xaa Giornata'
p984
aS'03/10/2007'
p985
aI13
aa(lp986
S'3196'
p987
aS'409'
p988
ag4
ag16
aS'3\xaa Giornata'
p989
aS'07/10/2007'
p990
aI13
aa(lp991
S'3197'
p992
aS'409'
p993
ag4
ag22
aS'4\xaa Giornata'
p994
aS'10/10/2007'
p995
aI13
aa(lp996
S'3198'
p997
aS'409'
p998
ag4
ag28
aS'5\xaa Giornata'
p999
aS'14/10/2007'
p1000
aI13
aa(lp1001
S'3199'
p1002
aS'409'
p1003
ag4
ag34
aS'6\xaa Giornata'
p1004
aS'21/10/2007'
p1005
aI13
aa(lp1006
S'3200'
p1007
aS'409'
p1008
ag4
ag40
aS'7\xaa Giornata'
p1009
aS'28/10/2007'
p1010
aI13
aa(lp1011
S'3201'
p1012
aS'409'
p1013
ag4
ag46
aS'8\xaa Giornata'
p1014
aS'31/10/2007'
p1015
aI13
aa(lp1016
S'3202'
p1017
aS'409'
p1018
ag4
ag52
aS'9\xaa Giornata'
p1019
aS'09/12/2007'
p1020
aI13
aa(lp1021
S'3203'
p1022
aS'409'
p1023
ag4
aS'10'
p1024
aS'10\xaa Giornata'
p1025
aS'16/12/2007'
p1026
aI13
aa(lp1027
S'3204'
p1028
aS'409'
p1029
ag4
aS'11'
p1030
aS'11\xaa Giornata'
p1031
aS'23/12/2007'
p1032
aI13
aa(lp1033
S'3205'
p1034
aS'409'
p1035
ag4
aS'12'
p1036
aS'12\xaa Giornata'
p1037
aS'26/12/2007'
p1038
aI13
aa(lp1039
S'3206'
p1040
aS'409'
p1041
ag4
aS'13'
p1042
aS'13\xaa Giornata'
p1043
aS'16/01/2008'
p1044
aI13
aa(lp1045
S'3207'
p1046
aS'409'
p1047
ag10
ag4
aS'1\xaa Giornata'
p1048
aS'20/01/2008'
p1049
aI13
aa(lp1050
S'3208'
p1051
aS'409'
p1052
ag10
ag10
aS'2\xaa Giornata'
p1053
aS'27/01/2008'
p1054
aI13
aa(lp1055
S'3209'
p1056
aS'409'
p1057
ag10
ag16
aS'3\xaa Giornata'
p1058
aS'03/02/2008'
p1059
aI13
aa(lp1060
S'3210'
p1061
aS'409'
p1062
ag10
ag22
aS'4\xaa Giornata'
p1063
aS'06/02/2008'
p1064
aI13
aa(lp1065
S'3211'
p1066
aS'409'
p1067
ag10
ag28
aS'5\xaa Giornata'
p1068
aS'10/02/2008'
p1069
aI13
aa(lp1070
S'3212'
p1071
aS'409'
p1072
ag10
ag34
aS'6\xaa Giornata'
p1073
aS'17/02/2008'
p1074
aI13
aa(lp1075
S'3213'
p1076
aS'409'
p1077
ag10
ag40
aS'7\xaa Giornata'
p1078
aS'24/02/2008'
p1079
aI13
aa(lp1080
S'3214'
p1081
aS'409'
p1082
ag10
ag46
aS'8\xaa Giornata'
p1083
aS'09/03/2008'
p1084
aI13
aa(lp1085
S'3215'
p1086
aS'409'
p1087
ag10
ag52
aS'9\xaa Giornata'
p1088
aS'16/03/2008'
p1089
aI13
aa(lp1090
S'3216'
p1091
aS'409'
p1092
ag10
aS'10'
p1093
aS'10\xaa Giornata'
p1094
aS'22/03/2008'
p1095
aI13
aa(lp1096
S'3217'
p1097
aS'409'
p1098
ag10
aS'11'
p1099
aS'11\xaa Giornata'
p1100
aS'30/03/2008'
p1101
aI13
aa(lp1102
S'3218'
p1103
aS'409'
p1104
ag10
aS'12'
p1105
aS'12\xaa Giornata'
p1106
aS'03/04/2008'
p1107
aI13
aa(lp1108
S'3219'
p1109
aS'409'
p1110
ag10
aS'13'
p1111
aS'13\xaa Giornata'
p1112
aS'06/04/2008'
p1113
aI13
aa(lp1114
S'3499'
p1115
aS'463'
p1116
ag4
ag4
aS'1\xaa Giornata'
p1117
aS'28/09/2008'
p1118
aI13
aa(lp1119
S'3500'
p1120
aS'463'
p1121
ag4
ag10
aS'2\xaa Giornata'
p1122
aS'05/10/2008'
p1123
aI13
aa(lp1124
S'3501'
p1125
aS'463'
p1126
ag4
ag16
aS'3\xaa Giornata'
p1127
aS'12/10/2008'
p1128
aI13
aa(lp1129
S'3502'
p1130
aS'463'
p1131
ag4
ag22
aS'4\xaa Giornata'
p1132
aS'19/10/2008'
p1133
aI13
aa(lp1134
S'3503'
p1135
aS'463'
p1136
ag4
ag28
aS'5\xaa Giornata'
p1137
aS'26/10/2008'
p1138
aI13
aa(lp1139
S'3504'
p1140
aS'463'
p1141
ag4
ag34
aS'6\xaa Giornata'
p1142
aS'02/11/2008'
p1143
aI13
aa(lp1144
S'3505'
p1145
aS'463'
p1146
ag4
ag40
aS'7\xaa Giornata'
p1147
aS'09/11/2008'
p1148
aI13
aa(lp1149
S'3506'
p1150
aS'463'
p1151
ag4
ag46
aS'8\xaa Giornata'
p1152
aS'16/11/2008'
p1153
aI13
aa(lp1154
S'3507'
p1155
aS'463'
p1156
ag4
ag52
aS'9\xaa Giornata'
p1157
aS'23/11/2008'
p1158
aI13
aa(lp1159
S'3508'
p1160
aS'463'
p1161
ag4
aS'10'
p1162
aS'10\xaa Giornata'
p1163
aS'30/11/2008'
p1164
aI13
aa(lp1165
S'3509'
p1166
aS'463'
p1167
ag4
aS'11'
p1168
aS'11\xaa Giornata'
p1169
aS'07/12/2008'
p1170
aI13
aa(lp1171
S'3510'
p1172
aS'463'
p1173
ag4
aS'12'
p1174
aS'12\xaa Giornata'
p1175
aS'14/12/2008'
p1176
aI13
aa(lp1177
S'3511'
p1178
aS'463'
p1179
ag4
aS'13'
p1180
aS'13\xaa Giornata'
p1181
aS'21/12/2008'
p1182
aI13
aa(lp1183
S'3512'
p1184
aS'463'
p1185
ag10
ag4
aS'1\xaa Giornata'
p1186
aS'28/12/2008'
p1187
aI13
aa(lp1188
S'3513'
p1189
aS'463'
p1190
ag10
ag10
aS'2\xaa Giornata'
p1191
aS'03/01/2009'
p1192
aI13
aa(lp1193
S'3514'
p1194
aS'463'
p1195
ag10
ag16
aS'3\xaa Giornata'
p1196
aS'06/01/2009'
p1197
aI13
aa(lp1198
S'3515'
p1199
aS'463'
p1200
ag10
ag22
aS'4\xaa Giornata'
p1201
aS'11/01/2009'
p1202
aI13
aa(lp1203
S'3516'
p1204
aS'463'
p1205
ag10
ag28
aS'5\xaa Giornata'
p1206
aS'18/01/2009'
p1207
aI13
aa(lp1208
S'3517'
p1209
aS'463'
p1210
ag10
ag34
aS'6\xaa Giornata'
p1211
aS'25/01/2009'
p1212
aI13
aa(lp1213
S'3518'
p1214
aS'463'
p1215
ag10
ag40
aS'7\xaa Giornata'
p1216
aS'08/02/2009'
p1217
aI13
aa(lp1218
S'3519'
p1219
aS'463'
p1220
ag10
ag46
aS'8\xaa Giornata'
p1221
aS'15/02/2009'
p1222
aI13
aa(lp1223
S'3520'
p1224
aS'463'
p1225
ag10
ag52
aS'9\xaa Giornata'
p1226
aS'22/02/2009'
p1227
aI13
aa(lp1228
S'3521'
p1229
aS'463'
p1230
ag10
aS'10'
p1231
aS'10\xaa Giornata'
p1232
aS'01/03/2009'
p1233
aI13
aa(lp1234
S'3522'
p1235
aS'463'
p1236
ag10
aS'11'
p1237
aS'11\xaa Giornata'
p1238
aS'08/03/2009'
p1239
aI13
aa(lp1240
S'3523'
p1241
aS'463'
p1242
ag10
aS'12'
p1243
aS'12\xaa Giornata'
p1244
aS'15/03/2009'
p1245
aI13
aa(lp1246
S'3524'
p1247
aS'463'
p1248
ag10
aS'13'
p1249
aS'13\xaa Giornata'
p1250
aS'22/03/2009'
p1251
aI13
aa(lp1252
S'3845'
p1253
aS'488'
p1254
ag4
ag4
aS'1\xaa Giornata'
p1255
aS'27/09/2009'
p1256
aI14
aa(lp1257
S'3846'
p1258
aS'488'
p1259
ag4
ag10
aS'2\xaa Giornata'
p1260
aS'04/10/2009'
p1261
aI14
aa(lp1262
S'3847'
p1263
aS'488'
p1264
ag4
ag16
aS'3\xaa Giornata'
p1265
aS'07/10/2009'
p1266
aI14
aa(lp1267
S'3848'
p1268
aS'488'
p1269
ag4
ag22
aS'4\xaa Giornata'
p1270
aS'11/10/2009'
p1271
aI14
aa(lp1272
S'3849'
p1273
aS'488'
p1274
ag4
ag28
aS'5\xaa Giornata'
p1275
aS'14/10/2009'
p1276
aI14
aa(lp1277
S'3850'
p1278
aS'488'
p1279
ag4
ag34
aS'6\xaa Giornata'
p1280
aS'18/10/2009'
p1281
aI14
aa(lp1282
S'3851'
p1283
aS'488'
p1284
ag4
ag40
aS'7\xaa Giornata'
p1285
aS'21/10/2009'
p1286
aI14
aa(lp1287
S'3852'
p1288
aS'488'
p1289
ag4
ag46
aS'8\xaa Giornata'
p1290
aS'25/10/2009'
p1291
aI14
aa(lp1292
S'3853'
p1293
aS'488'
p1294
ag4
ag52
aS'9\xaa Giornata'
p1295
aS'01/11/2009'
p1296
aI14
aa(lp1297
S'3854'
p1298
aS'488'
p1299
ag4
aS'10'
p1300
aS'10\xaa Giornata'
p1301
aS'08/11/2009'
p1302
aI14
aa(lp1303
S'3855'
p1304
aS'488'
p1305
ag4
aS'11'
p1306
aS'11\xaa Giornata'
p1307
aS'15/11/2009'
p1308
aI14
aa(lp1309
S'3856'
p1310
aS'488'
p1311
ag4
aS'12'
p1312
aS'12\xaa Giornata'
p1313
aS'26/11/2009'
p1314
aI14
aa(lp1315
S'3857'
p1316
aS'488'
p1317
ag4
aS'13'
p1318
aS'13\xaa Giornata'
p1319
aS'29/11/2009'
p1320
aI14
aa(lp1321
S'3858'
p1322
aS'488'
p1323
ag4
aS'14'
p1324
aS'14\xaa Giornata'
p1325
aS'06/12/2009'
p1326
aI14
aa(lp1327
S'3859'
p1328
aS'488'
p1329
ag4
aS'15'
p1330
aS'15\xaa Giornata'
p1331
aS'13/12/2009'
p1332
aI14
aa(lp1333
S'3860'
p1334
aS'488'
p1335
ag10
ag4
aS'1\xaa Giornata'
p1336
aS'20/12/2009'
p1337
aI14
aa(lp1338
S'3861'
p1339
aS'488'
p1340
ag10
ag10
aS'2\xaa Giornata'
p1341
aS'23/12/2009'
p1342
aI14
aa(lp1343
S'3862'
p1344
aS'488'
p1345
ag10
ag16
aS'3\xaa Giornata'
p1346
aS'27/12/2009'
p1347
aI14
aa(lp1348
S'3863'
p1349
aS'488'
p1350
ag10
ag22
aS'4\xaa Giornata'
p1351
aS'03/01/2010'
p1352
aI14
aa(lp1353
S'3864'
p1354
aS'488'
p1355
ag10
ag28
aS'5\xaa Giornata'
p1356
aS'10/01/2010'
p1357
aI14
aa(lp1358
S'3865'
p1359
aS'488'
p1360
ag10
ag34
aS'6\xaa Giornata'
p1361
aS'17/01/2010'
p1362
aI14
aa(lp1363
S'3866'
p1364
aS'488'
p1365
ag10
ag40
aS'7\xaa Giornata'
p1366
aS'24/01/2010'
p1367
aI14
aa(lp1368
S'3867'
p1369
aS'488'
p1370
ag10
ag46
aS'8\xaa Giornata'
p1371
aS'07/02/2010'
p1372
aI14
aa(lp1373
S'3868'
p1374
aS'488'
p1375
ag10
ag52
aS'9\xaa Giornata'
p1376
aS'14/02/2010'
p1377
aI14
aa(lp1378
S'3869'
p1379
aS'488'
p1380
ag10
aS'10'
p1381
aS'10\xaa Giornata'
p1382
aS'21/02/2010'
p1383
aI14
aa(lp1384
S'3870'
p1385
aS'488'
p1386
ag10
aS'11'
p1387
aS'11\xaa Giornata'
p1388
aS'28/02/2010'
p1389
aI14
aa(lp1390
S'3871'
p1391
aS'488'
p1392
ag10
aS'12'
p1393
aS'12\xaa Giornata'
p1394
aS'07/03/2010'
p1395
aI14
aa(lp1396
S'3872'
p1397
aS'488'
p1398
ag10
aS'13'
p1399
aS'13\xaa Giornata'
p1400
aS'14/03/2010'
p1401
aI14
aa(lp1402
S'3873'
p1403
aS'488'
p1404
ag10
aS'14'
p1405
aS'14\xaa Giornata'
p1406
aS'17/03/2010'
p1407
aI14
aa(lp1408
S'3874'
p1409
aS'488'
p1410
ag10
aS'15'
p1411
aS'15\xaa Giornata'
p1412
aS'21/03/2010'
p1413
aI14
aa(lp1414
S'3979'
p1415
aS'506'
p1416
ag4
ag4
aS'1\xaa Giornata'
p1417
aS'24/10/2010'
p1418
aI13
aa(lp1419
S'3980'
p1420
aS'506'
p1421
ag4
ag10
aS'2\xaa Giornata'
p1422
aS'31/10/2010'
p1423
aI13
aa(lp1424
S'3981'
p1425
aS'506'
p1426
ag4
ag16
aS'3\xaa Giornata'
p1427
aS'07/11/2010'
p1428
aI13
aa(lp1429
S'3982'
p1430
aS'506'
p1431
ag4
ag22
aS'4\xaa Giornata'
p1432
aS'14/11/2010'
p1433
aI13
aa(lp1434
S'3983'
p1435
aS'506'
p1436
ag4
ag28
aS'5\xaa Giornata'
p1437
aS'21/11/2010'
p1438
aI13
aa(lp1439
S'3984'
p1440
aS'506'
p1441
ag4
ag34
aS'6\xaa Giornata'
p1442
aS'28/11/2010'
p1443
aI13
aa(lp1444
S'3985'
p1445
aS'506'
p1446
ag4
ag40
aS'7\xaa Giornata'
p1447
aS'01/12/2010'
p1448
aI13
aa(lp1449
S'3986'
p1450
aS'506'
p1451
ag4
ag46
aS'8\xaa Giornata'
p1452
aS'05/12/2010'
p1453
aI13
aa(lp1454
S'3987'
p1455
aS'506'
p1456
ag4
ag52
aS'9\xaa Giornata'
p1457
aS'12/12/2010'
p1458
aI13
aa(lp1459
S'3988'
p1460
aS'506'
p1461
ag4
aS'10'
p1462
aS'10\xaa Giornata'
p1463
aS'19/12/2010'
p1464
aI13
aa(lp1465
S'3989'
p1466
aS'506'
p1467
ag4
aS'11'
p1468
aS'11\xaa Giornata'
p1469
aS'26/12/2010'
p1470
aI13
aa(lp1471
S'3990'
p1472
aS'506'
p1473
ag4
aS'12'
p1474
aS'12\xaa Giornata'
p1475
aS'02/01/2011'
p1476
aI13
aa(lp1477
S'3991'
p1478
aS'506'
p1479
ag4
aS'13'
p1480
aS'13\xaa Giornata'
p1481
aS'09/01/2011'
p1482
aI13
aa(lp1483
S'3992'
p1484
aS'506'
p1485
ag10
ag4
aS'1\xaa Giornata'
p1486
aS'16/01/2011'
p1487
aI13
aa(lp1488
S'3993'
p1489
aS'506'
p1490
ag10
ag10
aS'2\xaa Giornata'
p1491
aS'27/01/2011'
p1492
aI13
aa(lp1493
S'3994'
p1494
aS'506'
p1495
ag10
ag16
aS'3\xaa Giornata'
p1496
aS'30/01/2011'
p1497
aI13
aa(lp1498
S'3995'
p1499
aS'506'
p1500
ag10
ag22
aS'4\xaa Giornata'
p1501
aS'06/02/2011'
p1502
aI13
aa(lp1503
S'3996'
p1504
aS'506'
p1505
ag10
ag28
aS'5\xaa Giornata'
p1506
aS'13/02/2011'
p1507
aI13
aa(lp1508
S'3997'
p1509
aS'506'
p1510
ag10
ag34
aS'6\xaa Giornata'
p1511
aS'16/02/2011'
p1512
aI13
aa(lp1513
S'3998'
p1514
aS'506'
p1515
ag10
ag40
aS'7\xaa Giornata'
p1516
aS'20/02/2011'
p1517
aI13
aa(lp1518
S'3999'
p1519
aS'506'
p1520
ag10
ag46
aS'8\xaa Giornata'
p1521
aS'27/02/2011'
p1522
aI13
aa(lp1523
S'4000'
p1524
aS'506'
p1525
ag10
ag52
aS'9\xaa Giornata'
p1526
aS'06/03/2011'
p1527
aI13
aa(lp1528
S'4001'
p1529
aS'506'
p1530
ag10
aS'10'
p1531
aS'10\xaa Giornata'
p1532
aS'13/03/2011'
p1533
aI13
aa(lp1534
S'4002'
p1535
aS'506'
p1536
ag10
aS'11'
p1537
aS'11\xaa Giornata'
p1538
aS'20/03/2011'
p1539
aI13
aa(lp1540
S'4003'
p1541
aS'506'
p1542
ag10
aS'12'
p1543
aS'12\xaa Giornata'
p1544
aS'27/03/2011'
p1545
aI13
aa(lp1546
S'4004'
p1547
aS'506'
p1548
ag10
aS'13'
p1549
aS'13\xaa Giornata'
p1550
aS'03/04/2011'
p1551
aI13
aa(lp1552
S'4314'
p1553
aS'540'
p1554
ag4
ag4
aS'1\xaa Giornata'
p1555
aS'25/09/2011'
p1556
aI13
aa(lp1557
S'4315'
p1558
aS'540'
p1559
ag4
ag10
aS'2\xaa Giornata'
p1560
aS'02/10/2011'
p1561
aI13
aa(lp1562
S'4316'
p1563
aS'540'
p1564
ag4
ag16
aS'3\xaa Giornata'
p1565
aS'09/10/2011'
p1566
aI13
aa(lp1567
S'4317'
p1568
aS'540'
p1569
ag4
ag22
aS'4\xaa Giornata'
p1570
aS'16/10/2011'
p1571
aI13
aa(lp1572
S'4318'
p1573
aS'540'
p1574
ag4
ag28
aS'5\xaa Giornata'
p1575
aS'23/10/2011'
p1576
aI13
aa(lp1577
S'4319'
p1578
aS'540'
p1579
ag4
ag34
aS'6\xaa Giornata'
p1580
aS'30/10/2011'
p1581
aI13
aa(lp1582
S'4320'
p1583
aS'540'
p1584
ag4
ag40
aS'7\xaa Giornata'
p1585
aS'05/11/2011'
p1586
aI13
aa(lp1587
S'4321'
p1588
aS'540'
p1589
ag4
ag46
aS'8\xaa Giornata'
p1590
aS'08/12/2011'
p1591
aI13
aa(lp1592
S'4322'
p1593
aS'540'
p1594
ag4
ag52
aS'9\xaa Giornata'
p1595
aS'11/12/2011'
p1596
aI13
aa(lp1597
S'4323'
p1598
aS'540'
p1599
ag4
aS'10'
p1600
aS'10\xaa Giornata'
p1601
aS'18/12/2011'
p1602
aI13
aa(lp1603
S'4324'
p1604
aS'540'
p1605
ag4
aS'11'
p1606
aS'11\xaa Giornata'
p1607
aS'26/12/2011'
p1608
aI13
aa(lp1609
S'4325'
p1610
aS'540'
p1611
ag4
aS'12'
p1612
aS'12\xaa Giornata'
p1613
aS'29/12/2011'
p1614
aI13
aa(lp1615
S'4326'
p1616
aS'540'
p1617
ag4
aS'13'
p1618
aS'13\xaa Giornata'
p1619
aS'05/01/2012'
p1620
aI13
aa(lp1621
S'4327'
p1622
aS'540'
p1623
ag10
ag4
aS'1\xaa Giornata'
p1624
aS'08/01/2012'
p1625
aI13
aa(lp1626
S'4328'
p1627
aS'540'
p1628
ag10
ag10
aS'2\xaa Giornata'
p1629
aS'15/01/2012'
p1630
aI13
aa(lp1631
S'4329'
p1632
aS'540'
p1633
ag10
ag16
aS'3\xaa Giornata'
p1634
aS'22/01/2012'
p1635
aI13
aa(lp1636
S'4330'
p1637
aS'540'
p1638
ag10
ag22
aS'4\xaa Giornata'
p1639
aS'29/01/2012'
p1640
aI13
aa(lp1641
S'4331'
p1642
aS'540'
p1643
ag10
ag28
aS'5\xaa Giornata'
p1644
aS'05/02/2012'
p1645
aI13
aa(lp1646
S'4332'
p1647
aS'540'
p1648
ag10
ag34
aS'6\xaa Giornata'
p1649
aS'12/02/2012'
p1650
aI13
aa(lp1651
S'4333'
p1652
aS'540'
p1653
ag10
ag40
aS'7\xaa Giornata'
p1654
aS'26/02/2012'
p1655
aI13
aa(lp1656
S'4334'
p1657
aS'540'
p1658
ag10
ag46
aS'8\xaa Giornata'
p1659
aS'04/03/2012'
p1660
aI13
aa(lp1661
S'4335'
p1662
aS'540'
p1663
ag10
ag52
aS'9\xaa Giornata'
p1664
aS'07/03/2012'
p1665
aI13
aa(lp1666
S'4336'
p1667
aS'540'
p1668
ag10
aS'10'
p1669
aS'10\xaa Giornata'
p1670
aS'11/03/2012'
p1671
aI13
aa(lp1672
S'4337'
p1673
aS'540'
p1674
ag10
aS'11'
p1675
aS'11\xaa Giornata'
p1676
aS'18/03/2012'
p1677
aI13
aa(lp1678
S'4338'
p1679
aS'540'
p1680
ag10
aS'12'
p1681
aS'12\xaa Giornata'
p1682
aS'25/03/2012'
p1683
aI13
aa(lp1684
S'4339'
p1685
aS'540'
p1686
ag10
aS'13'
p1687
aS'13\xaa Giornata'
p1688
aS'01/04/2012'
p1689
aI13
aa(lp1690
S'4993'
p1691
aS'573'
p1692
ag4
ag4
aS'1\xaa Giornata'
p1693
aS'07/10/2012'
p1694
aI11
aa(lp1695
S'4994'
p1696
aS'573'
p1697
ag4
ag10
aS'2\xaa Giornata'
p1698
aS'14/10/2012'
p1699
aI11
aa(lp1700
S'4995'
p1701
aS'573'
p1702
ag4
ag16
aS'3\xaa Giornata'
p1703
aS'21/10/2012'
p1704
aI11
aa(lp1705
S'4996'
p1706
aS'573'
p1707
ag4
ag22
aS'4\xaa Giornata'
p1708
aS'28/10/2012'
p1709
aI11
aa(lp1710
S'4997'
p1711
aS'573'
p1712
ag4
ag28
aS'5\xaa Giornata'
p1713
aS'04/11/2012'
p1714
aI11
aa(lp1715
S'4998'
p1716
aS'573'
p1717
ag4
ag34
aS'6\xaa Giornata'
p1718
aS'11/11/2012'
p1719
aI11
aa(lp1720
S'4999'
p1721
aS'573'
p1722
ag4
ag40
aS'7\xaa Giornata'
p1723
aS'18/11/2012'
p1724
aI11
aa(lp1725
S'5000'
p1726
aS'573'
p1727
ag4
ag46
aS'8\xaa Giornata'
p1728
aS'25/11/2012'
p1729
aI11
aa(lp1730
S'5001'
p1731
aS'573'
p1732
ag4
ag52
aS'9\xaa Giornata'
p1733
aS'02/12/2012'
p1734
aI11
aa(lp1735
S'5002'
p1736
aS'573'
p1737
ag4
aS'10'
p1738
aS'10\xaa Giornata'
p1739
aS'09/12/2012'
p1740
aI11
aa(lp1741
S'5003'
p1742
aS'573'
p1743
ag4
aS'11'
p1744
aS'11\xaa Giornata'
p1745
aS'16/12/2012'
p1746
aI11
aa(lp1747
S'5004'
p1748
aS'573'
p1749
ag10
ag4
aS'1\xaa Giornata'
p1750
aS'22/12/2012'
p1751
aI11
aa(lp1752
S'5005'
p1753
aS'573'
p1754
ag10
ag10
aS'2\xaa Giornata'
p1755
aS'06/01/2013'
p1756
aI11
aa(lp1757
S'5006'
p1758
aS'573'
p1759
ag10
ag16
aS'3\xaa Giornata'
p1760
aS'13/01/2013'
p1761
aI11
aa(lp1762
S'5007'
p1763
aS'573'
p1764
ag10
ag22
aS'4\xaa Giornata'
p1765
aS'20/01/2013'
p1766
aI11
aa(lp1767
S'5008'
p1768
aS'573'
p1769
ag10
ag28
aS'5\xaa Giornata'
p1770
aS'27/01/2013'
p1771
aI11
aa(lp1772
S'5009'
p1773
aS'573'
p1774
ag10
ag34
aS'6\xaa Giornata'
p1775
aS'03/02/2013'
p1776
aI11
aa(lp1777
S'5010'
p1778
aS'573'
p1779
ag10
ag40
aS'7\xaa Giornata'
p1780
aS'10/02/2013'
p1781
aI11
aa(lp1782
S'5011'
p1783
aS'573'
p1784
ag10
ag46
aS'8\xaa Giornata'
p1785
aS'17/02/2013'
p1786
aI11
aa(lp1787
S'5012'
p1788
aS'573'
p1789
ag10
ag52
aS'9\xaa Giornata'
p1790
aS'24/02/2013'
p1791
aI11
aa(lp1792
S'5013'
p1793
aS'573'
p1794
ag10
aS'10'
p1795
aS'10\xaa Giornata'
p1796
aS'03/03/2013'
p1797
aI11
aa(lp1798
S'5014'
p1799
aS'573'
p1800
ag10
aS'11'
p1801
aS'11\xaa Giornata'
p1802
aS'10/03/2013'
p1803
aI11
aa(lp1804
S'5224'
p1805
aS'592'
p1806
ag4
ag4
aS'1\xaa Giornata'
p1807
aS'20/10/2013'
p1808
aI11
aa(lp1809
S'5225'
p1810
aS'592'
p1811
ag4
ag10
aS'2\xaa Giornata'
p1812
aS'27/10/2013'
p1813
aI11
aa(lp1814
S'5226'
p1815
aS'592'
p1816
ag4
ag16
aS'3\xaa Giornata'
p1817
aS'03/11/2013'
p1818
aI11
aa(lp1819
S'5227'
p1820
aS'592'
p1821
ag4
ag22
aS'4\xaa Giornata'
p1822
aS'10/11/2013'
p1823
aI11
aa(lp1824
S'5228'
p1825
aS'592'
p1826
ag4
ag28
aS'5\xaa Giornata'
p1827
aS'17/11/2013'
p1828
aI11
aa(lp1829
S'5229'
p1830
aS'592'
p1831
ag4
ag34
aS'6\xaa Giornata'
p1832
aS'24/11/2013'
p1833
aI11
aa(lp1834
S'5230'
p1835
aS'592'
p1836
ag4
ag40
aS'7\xaa Giornata'
p1837
aS'01/12/2013'
p1838
aI11
aa(lp1839
S'5231'
p1840
aS'592'
p1841
ag4
ag46
aS'8\xaa Giornata'
p1842
aS'08/12/2013'
p1843
aI11
aa(lp1844
S'5232'
p1845
aS'592'
p1846
ag4
ag52
aS'9\xaa Giornata'
p1847
aS'15/12/2013'
p1848
aI11
aa(lp1849
S'5233'
p1850
aS'592'
p1851
ag4
aS'10'
p1852
aS'10\xaa Giornata'
p1853
aS'22/12/2013'
p1854
aI11
aa(lp1855
S'5234'
p1856
aS'592'
p1857
ag4
aS'11'
p1858
aS'11\xaa Giornata'
p1859
aS'08/01/2014'
p1860
aI11
aa(lp1861
S'5235'
p1862
aS'592'
p1863
ag10
ag4
aS'1\xaa Giornata'
p1864
aS'12/01/2014'
p1865
aI11
aa(lp1866
S'5236'
p1867
aS'592'
p1868
ag10
ag10
aS'2\xaa Giornata'
p1869
aS'19/01/2014'
p1870
aI11
aa(lp1871
S'5237'
p1872
aS'592'
p1873
ag10
ag16
aS'3\xaa Giornata'
p1874
aS'26/01/2014'
p1875
aI11
aa(lp1876
S'5238'
p1877
aS'592'
p1878
ag10
ag22
aS'4\xaa Giornata'
p1879
aS'02/02/2014'
p1880
aI11
aa(lp1881
S'5239'
p1882
aS'592'
p1883
ag10
ag28
aS'5\xaa Giornata'
p1884
aS'09/02/2014'
p1885
aI11
aa(lp1886
S'5240'
p1887
aS'592'
p1888
ag10
ag34
aS'6\xaa Giornata'
p1889
aS'16/02/2014'
p1890
aI11
aa(lp1891
S'5241'
p1892
aS'592'
p1893
ag10
ag40
aS'7\xaa Giornata'
p1894
aS'23/02/2014'
p1895
aI11
aa(lp1896
S'5242'
p1897
aS'592'
p1898
ag10
ag46
aS'8\xaa Giornata'
p1899
aS'02/03/2014'
p1900
aI11
aa(lp1901
S'5243'
p1902
aS'592'
p1903
ag10
ag52
aS'9\xaa Giornata'
p1904
aS'19/02/2014'
p1905
aI11
aa(lp1906
S'5244'
p1907
aS'592'
p1908
ag10
aS'10'
p1909
aS'10\xaa Giornata'
p1910
aS'16/03/2014'
p1911
aI11
aa(lp1912
S'5245'
p1913
aS'592'
p1914
ag10
aS'11'
p1915
aS'11\xaa Giornata'
p1916
aS'23/03/2014'
p1917
aI11
aa(lp1918
S'5446'
p1919
aS'610'
p1920
ag4
ag4
aS'1\xaa Giornata'
p1921
aS'19/10/2014'
p1922
aI12
aa(lp1923
S'5447'
p1924
aS'610'
p1925
ag4
ag10
aS'2\xaa Giornata'
p1926
aS'26/10/2014'
p1927
aI12
aa(lp1928
S'5448'
p1929
aS'610'
p1930
ag4
ag16
aS'3\xaa Giornata'
p1931
aS'29/10/2014'
p1932
aI12
aa(lp1933
S'5449'
p1934
aS'610'
p1935
ag4
ag22
aS'4\xaa Giornata'
p1936
aS'02/11/2014'
p1937
aI12
aa(lp1938
S'5450'
p1939
aS'610'
p1940
ag4
ag28
aS'5\xaa Giornata'
p1941
aS'09/11/2014'
p1942
aI12
aa(lp1943
S'5451'
p1944
aS'610'
p1945
ag4
ag34
aS'6\xaa Giornata'
p1946
aS'16/11/2014'
p1947
aI12
aa(lp1948
S'5452'
p1949
aS'610'
p1950
ag4
ag40
aS'7\xaa Giornata'
p1951
aS'23/11/2014'
p1952
aI12
aa(lp1953
S'5453'
p1954
aS'610'
p1955
ag4
ag46
aS'8\xaa Giornata'
p1956
aS'30/11/2014'
p1957
aI12
aa(lp1958
S'5454'
p1959
aS'610'
p1960
ag4
ag52
aS'9\xaa Giornata'
p1961
aS'07/12/2014'
p1962
aI12
aa(lp1963
S'5455'
p1964
aS'610'
p1965
ag4
aS'10'
p1966
aS'10\xaa Giornata'
p1967
aS'14/12/2014'
p1968
aI12
aa(lp1969
S'5456'
p1970
aS'610'
p1971
ag4
aS'11'
p1972
aS'11\xaa Giornata'
p1973
aS'21/12/2014'
p1974
aI12
aa(lp1975
S'5457'
p1976
aS'610'
p1977
ag4
aS'12'
p1978
aS'12\xaa Giornata'
p1979
aS'26/12/2014'
p1980
aI12
aa(lp1981
S'5458'
p1982
aS'610'
p1983
ag4
aS'13'
p1984
aS'13\xaa Giornata'
p1985
aS'28/12/2014'
p1986
aI12
aa(lp1987
S'5459'
p1988
aS'610'
p1989
ag10
ag4
aS'1\xaa Giornata'
p1990
aS'03/01/2015'
p1991
aI12
aa(lp1992
S'5460'
p1993
aS'610'
p1994
ag10
ag10
aS'2\xaa Giornata'
p1995
aS'18/01/2015'
p1996
aI12
aa(lp1997
S'5461'
p1998
aS'610'
p1999
ag10
ag16
aS'3\xaa Giornata'
p2000
aS'25/01/2015'
p2001
aI12
aa(lp2002
S'5462'
p2003
aS'610'
p2004
ag10
ag22
aS'4\xaa Giornata'
p2005
aS'01/02/2015'
p2006
aI12
aa(lp2007
S'5463'
p2008
aS'610'
p2009
ag10
ag28
aS'5\xaa Giornata'
p2010
aS'08/02/2015'
p2011
aI12
aa(lp2012
S'5464'
p2013
aS'610'
p2014
ag10
ag34
aS'6\xaa Giornata'
p2015
aS'15/02/2015'
p2016
aI12
aa(lp2017
S'5465'
p2018
aS'610'
p2019
ag10
ag40
aS'7\xaa Giornata'
p2020
aS'22/02/2015'
p2021
aI12
aa(lp2022
S'5466'
p2023
aS'610'
p2024
ag10
ag46
aS'8\xaa Giornata'
p2025
aS'01/03/2015'
p2026
aI12
aa(lp2027
S'5467'
p2028
aS'610'
p2029
ag10
ag52
aS'9\xaa Giornata'
p2030
aS'08/03/2015'
p2031
aI12
aa(lp2032
S'5468'
p2033
aS'610'
p2034
ag10
aS'10'
p2035
aS'10\xaa Giornata'
p2036
aS'15/03/2015'
p2037
aI12
aa(lp2038
S'5469'
p2039
aS'610'
p2040
ag10
aS'11'
p2041
aS'11\xaa Giornata'
p2042
aS'22/03/2015'
p2043
aI12
aa(lp2044
S'5470'
p2045
aS'610'
p2046
ag10
aS'12'
p2047
aS'12\xaa Giornata'
p2048
aS'29/03/2015'
p2049
aI12
aa(lp2050
S'5471'
p2051
aS'610'
p2052
ag10
aS'13'
p2053
aS'13\xaa Giornata'
p2054
aS'05/04/2015'
p2055
aI12
aa(lp2056
S'5636'
p2057
aS'628'
p2058
ag4
ag4
aS'1\xaa Giornata'
p2059
aS'25/10/2015'
p2060
aI11
aa(lp2061
S'5637'
p2062
aS'628'
p2063
ag4
ag10
aS'2\xaa Giornata'
p2064
aS'01/11/2015'
p2065
aI11
aa(lp2066
S'5638'
p2067
aS'628'
p2068
ag4
ag16
aS'3\xaa Giornata'
p2069
aS'08/11/2015'
p2070
aI11
aa(lp2071
S'5639'
p2072
aS'628'
p2073
ag4
ag22
aS'4\xaa Giornata'
p2074
aS'11/11/2015'
p2075
aI11
aa(lp2076
S'5640'
p2077
aS'628'
p2078
ag4
ag28
aS'5\xaa Giornata'
p2079
aS'15/11/2015'
p2080
aI11
aa(lp2081
S'5641'
p2082
aS'628'
p2083
ag10
ag4
aS'1\xaa Giornata'
p2084
aS'20/12/2015'
p2085
aI11
aa(lp2086
S'5642'
p2087
aS'628'
p2088
ag4
ag34
aS'6\xaa Giornata'
p2089
aS'22/11/2015'
p2090
aI11
aa(lp2091
S'5643'
p2092
aS'628'
p2093
ag4
ag40
aS'7\xaa Giornata'
p2094
aS'25/11/2015'
p2095
aI11
aa(lp2096
S'5644'
p2097
aS'628'
p2098
ag4
ag46
aS'8\xaa Giornata'
p2099
aS'29/11/2015'
p2100
aI11
aa(lp2101
S'5645'
p2102
aS'628'
p2103
ag10
ag10
aS'2\xaa Giornata'
p2104
aS'17/01/2016'
p2105
aI11
aa(lp2106
S'5646'
p2107
aS'628'
p2108
ag10
ag16
aS'3\xaa Giornata'
p2109
aS'24/01/2016'
p2110
aI11
aa(lp2111
S'5647'
p2112
aS'628'
p2113
ag10
ag22
aS'4\xaa Giornata'
p2114
aS'31/01/2016'
p2115
aI11
aa(lp2116
S'5648'
p2117
aS'628'
p2118
ag10
ag28
aS'5\xaa Giornata'
p2119
aS'03/02/2016'
p2120
aI11
aa(lp2121
S'5649'
p2122
aS'628'
p2123
ag4
ag52
aS'9\xaa Giornata'
p2124
aS'06/12/2015'
p2125
aI11
aa(lp2126
S'5650'
p2127
aS'628'
p2128
ag10
ag34
aS'6\xaa Giornata'
p2129
aS'10/02/2016'
p2130
aI11
aa(lp2131
S'5651'
p2132
aS'628'
p2133
ag4
aS'10'
p2134
aS'10\xaa Giornata'
p2135
aS'08/12/2015'
p2136
aI11
aa(lp2137
S'5652'
p2138
aS'628'
p2139
ag10
ag40
aS'7\xaa Giornata'
p2140
aS'14/02/2016'
p2141
aI11
aa(lp2142
S'5653'
p2143
aS'628'
p2144
ag10
ag46
aS'8\xaa Giornata'
p2145
aS'21/02/2016'
p2146
aI11
aa(lp2147
S'5654'
p2148
aS'628'
p2149
ag4
aS'11'
p2150
aS'11\xaa Giornata'
p2151
aS'13/12/2015'
p2152
aI11
aa(lp2153
S'5655'
p2154
aS'628'
p2155
ag10
ag52
aS'9\xaa Giornata'
p2156
aS'24/02/2016'
p2157
aI11
aa(lp2158
S'5656'
p2159
aS'628'
p2160
ag10
aS'10'
p2161
aS'10\xaa Giornata'
p2162
aS'28/02/2016'
p2163
aI11
aa(lp2164
S'5657'
p2165
aS'628'
p2166
ag10
aS'11'
p2167
aS'11\xaa Giornata'
p2168
aS'06/03/2016'
p2169
aI11
aa(lp2170
S'5837'
p2171
aS'648'
p2172
ag4
ag4
aS'1\xaa Giornata'
p2173
aS'02/10/2016'
p2174
aI13
aa(lp2175
S'5838'
p2176
aS'648'
p2177
ag4
ag10
aS'2\xaa Giornata'
p2178
aS'09/10/2016'
p2179
aI13
aa(lp2180
S'5839'
p2181
aS'648'
p2182
ag4
ag16
aS'3\xaa Giornata'
p2183
aS'16/10/2016'
p2184
aI13
aa(lp2185
S'5840'
p2186
aS'648'
p2187
ag4
ag22
aS'4\xaa Giornata'
p2188
aS'19/10/2016'
p2189
aI13
aa(lp2190
S'5841'
p2191
aS'648'
p2192
ag4
ag28
aS'5\xaa Giornata'
p2193
aS'23/10/2016'
p2194
aI13
aa(lp2195
S'5842'
p2196
aS'648'
p2197
ag4
ag34
aS'6\xaa Giornata'
p2198
aS'29/10/2016'
p2199
aI13
aa(lp2200
S'5843'
p2201
aS'648'
p2202
ag4
ag40
aS'7\xaa Giornata'
p2203
aS'01/11/2016'
p2204
aI13
aa(lp2205
S'5844'
p2206
aS'648'
p2207
ag4
ag46
aS'8\xaa Giornata'
p2208
aS'06/11/2016'
p2209
aI13
aa(lp2210
S'5845'
p2211
aS'648'
p2212
ag4
ag52
aS'9\xaa Giornata'
p2213
aS'09/11/2016'
p2214
aI13
aa(lp2215
S'5846'
p2216
aS'648'
p2217
ag4
aS'10'
p2218
aS'10\xaa Giornata'
p2219
aS'13/11/2016'
p2220
aI13
aa(lp2221
S'5847'
p2222
aS'648'
p2223
ag4
aS'11'
p2224
aS'11\xaa Giornata'
p2225
aS'20/11/2016'
p2226
aI13
aa(lp2227
S'5848'
p2228
aS'648'
p2229
ag4
aS'12'
p2230
aS'12\xaa Giornata'
p2231
aS'27/11/2016'
p2232
aI13
aa(lp2233
S'5849'
p2234
aS'648'
p2235
ag4
aS'13'
p2236
aS'13\xaa Giornata'
p2237
aS'04/12/2016'
p2238
aI13
aa(lp2239
S'5850'
p2240
aS'648'
p2241
ag10
ag4
aS'1\xaa Giornata'
p2242
aS'11/12/2016'
p2243
aI13
aa(lp2244
S'5851'
p2245
aS'648'
p2246
ag10
ag10
aS'2\xaa Giornata'
p2247
aS'18/12/2016'
p2248
aI13
aa(lp2249
S'5852'
p2250
aS'648'
p2251
ag10
ag16
aS'3\xaa Giornata'
p2252
aS'26/12/2016'
p2253
aI13
aa(lp2254
S'5853'
p2255
aS'648'
p2256
ag10
ag22
aS'4\xaa Giornata'
p2257
aS'29/12/2016'
p2258
aI13
aa(lp2259
S'5854'
p2260
aS'648'
p2261
ag10
ag28
aS'5\xaa Giornata'
p2262
aS'08/01/2017'
p2263
aI13
aa(lp2264
S'5855'
p2265
aS'648'
p2266
ag10
ag34
aS'6\xaa Giornata'
p2267
aS'15/01/2017'
p2268
aI13
aa(lp2269
S'5856'
p2270
aS'648'
p2271
ag10
ag40
aS'7\xaa Giornata'
p2272
aS'22/01/2017'
p2273
aI13
aa(lp2274
S'5857'
p2275
aS'648'
p2276
ag10
ag46
aS'8\xaa Giornata'
p2277
aS'05/02/2017'
p2278
aI13
aa(lp2279
S'5858'
p2280
aS'648'
p2281
ag10
ag52
aS'9\xaa Giornata'
p2282
aS'08/02/2017'
p2283
aI13
aa(lp2284
S'5859'
p2285
aS'648'
p2286
ag10
aS'10'
p2287
aS'10\xaa Giornata'
p2288
aS'12/02/2017'
p2289
aI13
aa(lp2290
S'5860'
p2291
aS'648'
p2292
ag10
aS'11'
p2293
aS'11\xaa Giornata'
p2294
aS'19/02/2017'
p2295
aI13
aa(lp2296
S'5861'
p2297
aS'648'
p2298
ag10
aS'12'
p2299
aS'12\xaa Giornata'
p2300
aS'26/02/2017'
p2301
aI13
aa(lp2302
S'5862'
p2303
aS'648'
p2304
ag10
aS'13'
p2305
aS'13\xaa Giornata'
p2306
aS'05/03/2017'
p2307
aI13
aa(lp2308
S'6180'
p2309
aS'676'
p2310
ag4
ag4
aS'1\xaa Giornata'
p2311
aS'15/10/2017'
p2312
aI13
aa(lp2313
S'6181'
p2314
aS'676'
p2315
ag4
ag10
aS'2\xaa Giornata'
p2316
aS'22/10/2017'
p2317
aI13
aa(lp2318
S'6182'
p2319
aS'676'
p2320
ag4
ag16
aS'3\xaa Giornata'
p2321
aS'25/10/2017'
p2322
aI13
aa(lp2323
S'6183'
p2324
aS'676'
p2325
ag4
ag22
aS'4\xaa Giornata'
p2326
aS'29/10/2017'
p2327
aI13
aa(lp2328
S'6184'
p2329
aS'676'
p2330
ag4
ag28
aS'5\xaa Giornata'
p2331
aS'01/11/2017'
p2332
aI13
aa(lp2333
S'6185'
p2334
aS'676'
p2335
ag4
ag34
aS'6\xaa Giornata'
p2336
aS'05/11/2017'
p2337
aI13
aa(lp2338
S'6186'
p2339
aS'676'
p2340
ag4
ag40
aS'7\xaa Giornata'
p2341
aS'12/11/2017'
p2342
aI13
aa(lp2343
S'6187'
p2344
aS'676'
p2345
ag4
ag46
aS'8\xaa Giornata'
p2346
aS'19/11/2017'
p2347
aI13
aa(lp2348
S'6188'
p2349
aS'676'
p2350
ag4
ag52
aS'9\xaa Giornata'
p2351
aS'26/11/2017'
p2352
aI13
aa(lp2353
S'6189'
p2354
aS'676'
p2355
ag4
aS'10'
p2356
aS'10\xaa Giornata'
p2357
aS'03/12/2017'
p2358
aI13
aa(lp2359
S'6190'
p2360
aS'676'
p2361
ag4
aS'11'
p2362
aS'11\xaa Giornata'
p2363
aS'10/12/2017'
p2364
aI13
aa(lp2365
S'6191'
p2366
aS'676'
p2367
ag4
aS'12'
p2368
aS'12\xaa Giornata'
p2369
aS'17/12/2017'
p2370
aI13
aa(lp2371
S'6192'
p2372
aS'676'
p2373
ag4
aS'13'
p2374
aS'13\xaa Giornata'
p2375
aS'26/12/2017'
p2376
aI13
aa(lp2377
S'6193'
p2378
aS'676'
p2379
ag10
ag4
aS'1\xaa Giornata'
p2380
aS'30/12/2017'
p2381
aI13
aa(lp2382
S'6194'
p2383
aS'676'
p2384
ag10
ag10
aS'2\xaa Giornata'
p2385
aS'04/01/2018'
p2386
aI13
aa(lp2387
S'6195'
p2388
aS'676'
p2389
ag10
ag16
aS'3\xaa Giornata'
p2390
aS'07/01/2018'
p2391
aI13
aa(lp2392
S'6196'
p2393
aS'676'
p2394
ag10
ag22
aS'4\xaa Giornata'
p2395
aS'10/01/2018'
p2396
aI13
aa(lp2397
S'6197'
p2398
aS'676'
p2399
ag10
ag28
aS'5\xaa Giornata'
p2400
aS'14/01/2018'
p2401
aI13
aa(lp2402
S'6198'
p2403
aS'676'
p2404
ag10
ag34
aS'6\xaa Giornata'
p2405
aS'21/01/2018'
p2406
aI13
aa(lp2407
S'6199'
p2408
aS'676'
p2409
ag10
ag40
aS'7\xaa Giornata'
p2410
aS'04/02/2018'
p2411
aI13
aa(lp2412
S'6200'
p2413
aS'676'
p2414
ag10
ag46
aS'8\xaa Giornata'
p2415
aS'07/02/2018'
p2416
aI13
aa(lp2417
S'6201'
p2418
aS'676'
p2419
ag10
ag52
aS'9\xaa Giornata'
p2420
aS'11/02/2018'
p2421
aI13
aa(lp2422
S'6202'
p2423
aS'676'
p2424
ag10
aS'10'
p2425
aS'10\xaa Giornata'
p2426
aS'18/02/2018'
p2427
aI13
aa(lp2428
S'6203'
p2429
aS'676'
p2430
ag10
aS'11'
p2431
aS'11\xaa Giornata'
p2432
aS'21/02/2018'
p2433
aI13
aa(lp2434
S'6204'
p2435
aS'676'
p2436
ag10
aS'12'
p2437
aS'12\xaa Giornata'
p2438
aS'25/02/2018'
p2439
aI13
aa(lp2440
S'6205'
p2441
aS'676'
p2442
ag10
aS'13'
p2443
aS'13\xaa Giornata'
p2444
aS'04/03/2018'
p2445
aI13
aa.