(lp0
(lp1
S'SQU'
p2
aS'AG'
p3
aS'1987'
p4
aa(lp5
S'SQU'
p6
aS'AG'
p7
aS'1990'
p8
aa(lp9
S'SQU'
p10
aS'ALESSANO'
p11
aS'2017'
p12
aa(lp13
S'SQU'
p14
aS'ANF'
p15
aS'1979'
p16
aa(lp17
S'SQU'
p18
aS'ANF'
p19
aS'1983'
p20
aa(lp21
S'SQU'
p22
aS'ANF'
p23
aS'2001'
p24
aa(lp25
S'SQU'
p26
aS'ANF'
p27
aS'1998'
p28
aa(lp29
S'SQU'
p30
aS'ANF'
p31
aS'1986'
p32
aa(lp33
S'SQU'
p34
aS'ANF'
p35
aS'1994'
p36
aa(lp37
S'SQU'
p38
aS'ANF'
p39
aS'1996'
p40
aa(lp41
S'SQU'
p42
aS'ANF'
p43
aS'1998'
p44
aa(lp45
S'SQU'
p46
aS'ANF'
p47
aS'1999'
p48
aa(lp49
S'SQU'
p50
aS'ANF'
p51
aS'2000'
p52
aa(lp53
S'SQU'
p54
aS'ANF'
p55
aS'2001'
p56
aa(lp57
S'SQU'
p58
aS'ANF'
p59
aS'1993'
p60
aa(lp61
S'SQU'
p62
aS'ANF'
p63
aS'2003'
p64
aa(lp65
S'SQU'
p66
aS'ANF'
p67
aS'1998'
p68
aa(lp69
S'SQU'
p70
aS'ANL'
p71
aS'1978'
p72
aa(lp73
S'SQU'
p74
aS'ANL'
p75
aS'2009'
p76
aa(lp77
S'SQU'
p78
aS'ANL'
p79
aS'2003'
p80
aa(lp81
S'SQU'
p82
aS'ANL'
p83
aS'2001'
p84
aa(lp85
S'SQU'
p86
aS'ANL'
p87
aS'2002'
p88
aa(lp89
S'SQU'
p90
aS'ARI-75'
p91
aS'1975'
p92
aa(lp93
S'SQU'
p94
aS'AS'
p95
aS'1980'
p96
aa(lp97
S'SQU'
p98
aS'ATRIPALDA'
p99
aS'2013'
p100
aa(lp101
S'SQU'
p102
aS'BAC'
p103
aS'2018'
p104
aa(lp105
S'SQU'
p106
aS'BAC'
p107
aS'2014'
p108
aa(lp109
S'SQU'
p110
aS'BAG'
p111
aS'2003'
p112
aa(lp113
S'SQU'
p114
aS'BAG'
p115
aS'1994'
p116
aa(lp117
S'SQU'
p118
aS'BAM'
p119
aS'2013'
p120
aa(lp121
S'SQU'
p122
aS'BASTIA'
p123
aS'2018'
p124
aa(lp125
S'SQU'
p126
aS'BASTIA'
p127
aS'2012'
p128
aa(lp129
S'SQU'
p130
aS'BASTIA'
p131
aS'2018'
p132
aa(lp133
S'SQU'
p134
aS'BASTIA'
p135
aS'2017'
p136
aa(lp137
S'SQU'
p138
aS'BELL-87'
p139
aS'1979'
p140
aa(lp141
S'SQU'
p142
aS'BO'
p143
aS'1985'
p144
aa(lp145
S'SQU'
p146
aS'BO'
p147
aS'1978'
p148
aa(lp149
S'SQU'
p150
aS'BO'
p151
aS'1982'
p152
aa(lp153
S'SQU'
p154
aS'BO'
p155
aS'1993'
p156
aa(lp157
S'SQU'
p158
aS'BO'
p159
aS'1984'
p160
aa(lp161
S'SQU'
p162
aS'BO'
p163
aS'1987'
p164
aa(lp165
S'SQU'
p166
aS'BOVIR'
p167
aS'1966'
p168
aa(lp169
S'SQU'
p170
aS'BOVIR'
p171
aS'1967'
p172
aa(lp173
S'SQU'
p174
aS'BRE'
p175
aS'1991'
p176
aa(lp177
S'SQU'
p178
aS'BRUMI'
p179
aS'1990'
p180
aa(lp181
S'SQU'
p182
aS'BSM'
p183
aS'1987'
p184
aa(lp185
S'SQU'
p186
aS'BSM'
p187
aS'1991'
p188
aa(lp189
S'SQU'
p190
aS'BSM'
p191
aS'1992'
p192
aa(lp193
S'SQU'
p194
aS'CA'
p195
aS'2005'
p196
aa(lp197
S'SQU'
p198
aS'CASANTIOCO'
p199
aS'1994'
p200
aa(lp201
S'SQU'
p202
aS'CAST-MATER'
p203
aS'2012'
p204
aa(lp205
S'SQU'
p206
aS'CAST-MATER'
p207
aS'2012'
p208
aa(lp209
S'SQU'
p210
aS'CAST-MATER'
p211
aS'2017'
p212
aa(lp213
S'SQU'
p214
aS'CH'
p215
aS'1980'
p216
aa(lp217
S'SQU'
p218
aS'CHIUSI'
p219
aS'2017'
p220
aa(lp221
S'SQU'
p222
aS'CIVITA'
p223
aS'2018'
p224
aa(lp225
S'SQU'
p226
aS'CN'
p227
aS'2010'
p228
aa(lp229
S'SQU'
p230
aS'CN'
p231
aS'1989'
p232
aa(lp233
S'SQU'
p234
aS'CN'
p235
aS'1996'
p236
aa(lp237
S'SQU'
p238
aS'CN'
p239
aS'1999'
p240
aa(lp241
S'SQU'
p242
aS'CN'
p243
aS'2002'
p244
aa(lp245
S'SQU'
p246
aS'CN'
p247
aS'2006'
p248
aa(lp249
S'SQU'
p250
aS'CN'
p251
aS'2011'
p252
aa(lp253
S'SQU'
p254
aS'CN'
p255
aS'1997'
p256
aa(lp257
S'SQU'
p258
aS'CN'
p259
aS'1998'
p260
aa(lp261
S'SQU'
p262
aS'CN'
p263
aS'1996'
p264
aa(lp265
S'SQU'
p266
aS'CN'
p267
aS'2002'
p268
aa(lp269
S'SQU'
p270
aS'CN'
p271
aS'2010'
p272
aa(lp273
S'SQU'
p274
aS'CN'
p275
aS'1996'
p276
aa(lp277
S'SQU'
p278
aS'CN'
p279
aS'1999'
p280
aa(lp281
S'SQU'
p282
aS'CN'
p283
aS'2002'
p284
aa(lp285
S'SQU'
p286
aS'CN'
p287
aS'2010'
p288
aa(lp289
S'SQU'
p290
aS'CN'
p291
aS'1996'
p292
aa(lp293
S'SQU'
p294
aS'CN'
p295
aS'1997'
p296
aa(lp297
S'SQU'
p298
aS'CN'
p299
aS'1999'
p300
aa(lp301
S'SQU'
p302
aS'CN'
p303
aS'2010'
p304
aa(lp305
S'SQU'
p306
aS'CN'
p307
aS'2012'
p308
aa(lp309
S'SQU'
p310
aS'CN'
p311
aS'1998'
p312
aa(lp313
S'SQU'
p314
aS'CN'
p315
aS'1999'
p316
aa(lp317
S'SQU'
p318
aS'CN'
p319
aS'2004'
p320
aa(lp321
S'SQU'
p322
aS'CN'
p323
aS'2007'
p324
aa(lp325
S'SQU'
p326
aS'CN'
p327
aS'2011'
p328
aa(lp329
S'SQU'
p330
aS'CR'
p331
aS'1986'
p332
aa(lp333
S'SQU'
p334
aS'CRC'
p335
aS'2006'
p336
aa(lp337
S'SQU'
p338
aS'CSC'
p339
aS'2007'
p340
aa(lp341
S'SQU'
p342
aS'CT'
p343
aS'1986'
p344
aa(lp345
S'SQU'
p346
aS'FE'
p347
aS'1995'
p348
aa(lp349
S'SQU'
p350
aS'FI'
p351
aS'1964'
p352
aa(lp353
S'SQU'
p354
aS'FI'
p355
aS'1965'
p356
aa(lp357
S'SQU'
p358
aS'FI'
p359
aS'1968'
p360
aa(lp361
S'SQU'
p362
aS'FI'
p363
aS'1971'
p364
aa(lp365
S'SQU'
p366
aS'FI'
p367
aS'1973'
p368
aa(lp369
S'SQU'
p370
aS'FICUS'
p371
aS'1983'
p372
aa(lp373
S'SQU'
p374
aS'FO'
p375
aS'1997'
p376
aa(lp377
S'SQU'
p378
aS'FO'
p379
aS'1999'
p380
aa(lp381
S'SQU'
p382
aS'FO'
p383
aS'1999'
p384
aa(lp385
S'SQU'
p386
aS'FO'
p387
aS'2001'
p388
aa(lp389
S'SQU'
p390
aS'FO'
p391
aS'1996'
p392
aa(lp393
S'SQU'
p394
aS'FO'
p395
aS'1999'
p396
aa(lp397
S'SQU'
p398
aS'FO'
p399
aS'2008'
p400
aa(lp401
S'SQU'
p402
aS'FONT-87'
p403
aS'1986'
p404
aa(lp405
S'SQU'
p406
aS'FR-SORA'
p407
aS'2016'
p408
aa(lp409
S'SQU'
p410
aS'GABB'
p411
aS'1991'
p412
aa(lp413
S'SQU'
p414
aS'GABB'
p415
aS'1993'
p416
aa(lp417
S'SQU'
p418
aS'GABB'
p419
aS'1989'
p420
aa(lp421
S'SQU'
p422
aS'LET'
p423
aS'2006'
p424
aa(lp425
S'SQU'
p426
aS'LEU'
p427
aS'1983'
p428
aa(lp429
S'SQU'
p430
aS'LEU'
p431
aS'1985'
p432
aa(lp433
S'SQU'
p434
aS'LT'
p435
aS'2009'
p436
aa(lp437
S'SQU'
p438
aS'LT'
p439
aS'2004'
p440
aa(lp441
S'SQU'
p442
aS'LT'
p443
aS'2001'
p444
aa(lp445
S'SQU'
p446
aS'LT'
p447
aS'2009'
p448
aa(lp449
S'SQU'
p450
aS'MC'
p451
aS'2006'
p452
aa(lp453
S'SQU'
p454
aS'MC'
p455
aS'2012'
p456
aa(lp457
S'SQU'
p458
aS'MC'
p459
aS'2014'
p460
aa(lp461
S'SQU'
p462
aS'MC'
p463
aS'2017'
p464
aa(lp465
S'SQU'
p466
aS'MC'
p467
aS'2001'
p468
aa(lp469
S'SQU'
p470
aS'MC'
p471
aS'2003'
p472
aa(lp473
S'SQU'
p474
aS'MC'
p475
aS'2008'
p476
aa(lp477
S'SQU'
p478
aS'MC'
p479
aS'2009'
p480
aa(lp481
S'SQU'
p482
aS'MC'
p483
aS'2017'
p484
aa(lp485
S'SQU'
p486
aS'MC'
p487
aS'2002'
p488
aa(lp489
S'SQU'
p490
aS'MC'
p491
aS'2001'
p492
aa(lp493
S'SQU'
p494
aS'MC'
p495
aS'2005'
p496
aa(lp497
S'SQU'
p498
aS'MC'
p499
aS'2006'
p500
aa(lp501
S'SQU'
p502
aS'MC'
p503
aS'2006'
p504
aa(lp505
S'SQU'
p506
aS'MC'
p507
aS'2008'
p508
aa(lp509
S'SQU'
p510
aS'MC'
p511
aS'2012'
p512
aa(lp513
S'SQU'
p514
aS'MC'
p515
aS'2014'
p516
aa(lp517
S'SQU'
p518
aS'MC'
p519
aS'2000'
p520
aa(lp521
S'SQU'
p522
aS'MC'
p523
aS'2007'
p524
aa(lp525
S'SQU'
p526
aS'MC'
p527
aS'2013'
p528
aa(lp529
S'SQU'
p530
aS'MC'
p531
aS'2004'
p532
aa(lp533
S'SQU'
p534
aS'MC'
p535
aS'2007'
p536
aa(lp537
S'SQU'
p538
aS'MC'
p539
aS'2013'
p540
aa(lp541
S'SQU'
p542
aS'MC'
p543
aS'2018'
p544
aa(lp545
S'SQU'
p546
aS'MC'
p547
aS'2010'
p548
aa(lp549
S'SQU'
p550
aS'MC'
p551
aS'2012'
p552
aa(lp553
S'SQU'
p554
aS'MC'
p555
aS'2011'
p556
aa(lp557
S'SQU'
p558
aS'MC'
p559
aS'2016'
p560
aa(lp561
S'SQU'
p562
aS'MC'
p563
aS'2007'
p564
aa(lp565
S'SQU'
p566
aS'MI'
p567
aS'1993'
p568
aa(lp569
S'SQU'
p570
aS'MI'
p571
aS'1987'
p572
aa(lp573
S'SQU'
p574
aS'MI'
p575
aS'1990'
p576
aa(lp577
S'SQU'
p578
aS'MI'
p579
aS'1992'
p580
aa(lp581
S'SQU'
p582
aS'MIA'
p583
aS'1993'
p584
aa(lp585
S'SQU'
p586
aS'MISPA'
p587
aS'2007'
p588
aa(lp589
S'SQU'
p590
aS'MISPA'
p591
aS'2007'
p592
aa(lp593
S'SQU'
p594
aS'MIVER'
p595
aS'2014'
p596
aa(lp597
S'SQU'
p598
aS'MNN'
p599
aS'1987'
p600
aa(lp601
S'SQU'
p602
aS'MO'
p603
aS'1970'
p604
aa(lp605
S'SQU'
p606
aS'MO'
p607
aS'1972'
p608
aa(lp609
S'SQU'
p610
aS'MO'
p611
aS'1974'
p612
aa(lp613
S'SQU'
p614
aS'MO'
p615
aS'1976'
p616
aa(lp617
S'SQU'
p618
aS'MO'
p619
aS'1986'
p620
aa(lp621
S'SQU'
p622
aS'MO'
p623
aS'1987'
p624
aa(lp625
S'SQU'
p626
aS'MO'
p627
aS'1988'
p628
aa(lp629
S'SQU'
p630
aS'MO'
p631
aS'1989'
p632
aa(lp633
S'SQU'
p634
aS'MO'
p635
aS'1995'
p636
aa(lp637
S'SQU'
p638
aS'MO'
p639
aS'1997'
p640
aa(lp641
S'SQU'
p642
aS'MO'
p643
aS'2002'
p644
aa(lp645
S'SQU'
p646
aS'MO'
p647
aS'2016'
p648
aa(lp649
S'SQU'
p650
aS'MO'
p651
aS'1979'
p652
aa(lp653
S'SQU'
p654
aS'MO'
p655
aS'1980'
p656
aa(lp657
S'SQU'
p658
aS'MO'
p659
aS'1985'
p660
aa(lp661
S'SQU'
p662
aS'MO'
p663
aS'1986'
p664
aa(lp665
S'SQU'
p666
aS'MO'
p667
aS'1988'
p668
aa(lp669
S'SQU'
p670
aS'MO'
p671
aS'1989'
p672
aa(lp673
S'SQU'
p674
aS'MO'
p675
aS'1994'
p676
aa(lp677
S'SQU'
p678
aS'MO'
p679
aS'1995'
p680
aa(lp681
S'SQU'
p682
aS'MO'
p683
aS'1997'
p684
aa(lp685
S'SQU'
p686
aS'MO'
p687
aS'1998'
p688
aa(lp689
S'SQU'
p690
aS'MO'
p691
aS'2015'
p692
aa(lp693
S'SQU'
p694
aS'MO'
p695
aS'2016'
p696
aa(lp697
S'SQU'
p698
aS'MO'
p699
aS'1980'
p700
aa(lp701
S'SQU'
p702
aS'MO'
p703
aS'1986'
p704
aa(lp705
S'SQU'
p706
aS'MO'
p707
aS'1995'
p708
aa(lp709
S'SQU'
p710
aS'MO'
p711
aS'1983'
p712
aa(lp713
S'SQU'
p714
aS'MO'
p715
aS'1984'
p716
aa(lp717
S'SQU'
p718
aS'MO'
p719
aS'1985'
p720
aa(lp721
S'SQU'
p722
aS'MO'
p723
aS'2004'
p724
aa(lp725
S'SQU'
p726
aS'MO'
p727
aS'1997'
p728
aa(lp729
S'SQU'
p730
aS'MO'
p731
aS'2015'
p732
aa(lp733
S'SQU'
p734
aS'MO'
p735
aS'2016'
p736
aa(lp737
S'SQU'
p738
aS'MO'
p739
aS'1995'
p740
aa(lp741
S'SQU'
p742
aS'MO'
p743
aS'2016'
p744
aa(lp745
S'SQU'
p746
aS'MO'
p747
aS'1996'
p748
aa(lp749
S'SQU'
p750
aS'MO'
p751
aS'2006'
p752
aa(lp753
S'SQU'
p754
aS'MO'
p755
aS'1990'
p756
aa(lp757
S'SQU'
p758
aS'MO'
p759
aS'1996'
p760
aa(lp761
S'SQU'
p762
aS'MO'
p763
aS'1997'
p764
aa(lp765
S'SQU'
p766
aS'MO'
p767
aS'1998'
p768
aa(lp769
S'SQU'
p770
aS'MO'
p771
aS'2008'
p772
aa(lp773
S'SQU'
p774
aS'MOM'
p775
aS'1953'
p776
aa(lp777
S'SQU'
p778
aS'MOM'
p779
aS'1954'
p780
aa(lp781
S'SQU'
p782
aS'MOM'
p783
aS'1955'
p784
aa(lp785
S'SQU'
p786
aS'MOV'
p787
aS'1956'
p788
aa(lp789
S'SQU'
p790
aS'MOV'
p791
aS'1958'
p792
aa(lp793
S'SQU'
p794
aS'MOV'
p795
aS'1961'
p796
aa(lp797
S'SQU'
p798
aS'MRMV'
p799
aS'2010'
p800
aa(lp801
S'SQU'
p802
aS'MRMV'
p803
aS'2010'
p804
aa(lp805
S'SQU'
p806
aS'MRMV'
p807
aS'2008'
p808
aa(lp809
S'SQU'
p810
aS'MRMV'
p811
aS'2009'
p812
aa(lp813
S'SQU'
p814
aS'NA'
p815
aS'1996'
p816
aa(lp817
S'SQU'
p818
aS'NAS'
p819
aS'1986'
p820
aa(lp821
S'SQU'
p822
aS'PA'
p823
aS'1981'
p824
aa(lp825
S'SQU'
p826
aS'PADOM'
p827
aS'1999'
p828
aa(lp829
S'SQU'
p830
aS'PC'
p831
aS'2009'
p832
aa(lp833
S'SQU'
p834
aS'PC'
p835
aS'2002'
p836
aa(lp837
S'SQU'
p838
aS'PC'
p839
aS'2014'
p840
aa(lp841
S'SQU'
p842
aS'PC'
p843
aS'2002'
p844
aa(lp845
S'SQU'
p846
aS'PC'
p847
aS'2009'
p848
aa(lp849
S'SQU'
p850
aS'PC'
p851
aS'2001'
p852
aa(lp853
S'SQU'
p854
aS'PC'
p855
aS'2006'
p856
aa(lp857
S'SQU'
p858
aS'PC'
p859
aS'2013'
p860
aa(lp861
S'SQU'
p862
aS'PD'
p863
aS'1981'
p864
aa(lp865
S'SQU'
p866
aS'PD'
p867
aS'2014'
p868
aa(lp869
S'SQU'
p870
aS'PD'
p871
aS'2014'
p872
aa(lp873
S'SQU'
p874
aS'PD'
p875
aS'1994'
p876
aa(lp877
S'SQU'
p878
aS'PD'
p879
aS'2015'
p880
aa(lp881
S'SQU'
p882
aS'PD'
p883
aS'2011'
p884
aa(lp885
S'SQU'
p886
aS'PD-02'
p887
aS'1984'
p888
aa(lp889
S'SQU'
p890
aS'PES'
p891
aS'1982'
p892
aa(lp893
S'SQU'
p894
aS'PG'
p895
aS'2010'
p896
aa(lp897
S'SQU'
p898
aS'PG'
p899
aS'2002'
p900
aa(lp901
S'SQU'
p902
aS'PGC'
p903
aS'1991'
p904
aa(lp905
S'SQU'
p906
aS'PGC'
p907
aS'2013'
p908
aa(lp909
S'SQU'
p910
aS'PGS'
p911
aS'1988'
p912
aa(lp913
S'SQU'
p914
aS'PGS'
p915
aS'1991'
p916
aa(lp917
S'SQU'
p918
aS'PI1'
p919
aS'1984'
p920
aa(lp921
S'SQU'
p922
aS'PI1'
p923
aS'2005'
p924
aa(lp925
S'SQU'
p926
aS'PI1'
p927
aS'2005'
p928
aa(lp929
S'SQU'
p930
aS'PI1'
p931
aS'2011'
p932
aa(lp933
S'SQU'
p934
aS'PISA-80'
p935
aS'1978'
p936
aa(lp937
S'SQU'
p938
aS'PLAYA'
p939
aS'1996'
p940
aa(lp941
S'SQU'
p942
aS'PO'
p943
aS'1992'
p944
aa(lp945
S'SQU'
p946
aS'POTPIC'
p947
aS'2015'
p948
aa(lp949
S'SQU'
p950
aS'PR'
p951
aS'1950'
p952
aa(lp953
S'SQU'
p954
aS'PR'
p955
aS'1951'
p956
aa(lp957
S'SQU'
p958
aS'PR'
p959
aS'1969'
p960
aa(lp961
S'SQU'
p962
aS'PR'
p963
aS'1982'
p964
aa(lp965
S'SQU'
p966
aS'PR'
p967
aS'1983'
p968
aa(lp969
S'SQU'
p970
aS'PR'
p971
aS'1990'
p972
aa(lp973
S'SQU'
p974
aS'PR'
p975
aS'1992'
p976
aa(lp977
S'SQU'
p978
aS'PR'
p979
aS'1993'
p980
aa(lp981
S'SQU'
p982
aS'PR'
p983
aS'1982'
p984
aa(lp985
S'SQU'
p986
aS'PR'
p987
aS'1983'
p988
aa(lp989
S'SQU'
p990
aS'PR'
p991
aS'1987'
p992
aa(lp993
S'SQU'
p994
aS'PR'
p995
aS'1990'
p996
aa(lp997
S'SQU'
p998
aS'PR'
p999
aS'1992'
p1000
aa(lp1001
S'SQU'
p1002
aS'PR'
p1003
aS'1988'
p1004
aa(lp1005
S'SQU'
p1006
aS'PR'
p1007
aS'1989'
p1008
aa(lp1009
S'SQU'
p1010
aS'PR'
p1011
aS'1990'
p1012
aa(lp1013
S'SQU'
p1014
aS'PR'
p1015
aS'1992'
p1016
aa(lp1017
S'SQU'
p1018
aS'PR'
p1019
aS'1995'
p1020
aa(lp1021
S'SQU'
p1022
aS'PR'
p1023
aS'1989'
p1024
aa(lp1025
S'SQU'
p1026
aS'PR'
p1027
aS'1990'
p1028
aa(lp1029
S'SQU'
p1030
aS'PR'
p1031
aS'1989'
p1032
aa(lp1033
S'SQU'
p1034
aS'PR'
p1035
aS'1984'
p1036
aa(lp1037
S'SQU'
p1038
aS'PR'
p1039
aS'1985'
p1040
aa(lp1041
S'SQU'
p1042
aS'PR'
p1043
aS'1999'
p1044
aa(lp1045
S'SQU'
p1046
aS'PUF'
p1047
aS'1998'
p1048
aa(lp1049
S'SQU'
p1050
aS'PUF'
p1051
aS'2000'
p1052
aa(lp1053
S'SQU'
p1054
aS'RAV-ROB'
p1055
aS'1946'
p1056
aa(lp1057
S'SQU'
p1058
aS'RAV-ROB'
p1059
aS'1947'
p1060
aa(lp1061
S'SQU'
p1062
aS'RAV-ROB'
p1063
aS'1948'
p1064
aa(lp1065
S'SQU'
p1066
aS'RAV-ROB'
p1067
aS'1949'
p1068
aa(lp1069
S'SQU'
p1070
aS'RAV-ROB'
p1071
aS'1952'
p1072
aa(lp1073
S'SQU'
p1074
aS'RAV-ROB'
p1075
aS'1991'
p1076
aa(lp1077
S'SQU'
p1078
aS'RAV-ROB'
p1079
aS'2011'
p1080
aa(lp1081
S'SQU'
p1082
aS'RAV-ROB'
p1083
aS'1991'
p1084
aa(lp1085
S'SQU'
p1086
aS'RAV-ROB'
p1087
aS'1997'
p1088
aa(lp1089
S'SQU'
p1090
aS'RAV-ROB'
p1091
aS'1992'
p1092
aa(lp1093
S'SQU'
p1094
aS'RAV-ROB'
p1095
aS'1993'
p1096
aa(lp1097
S'SQU'
p1098
aS'RAV-ROB'
p1099
aS'1991'
p1100
aa(lp1101
S'SQU'
p1102
aS'RAV-ROB'
p1103
aS'1992'
p1104
aa(lp1105
S'SQU'
p1106
aS'RAV-ROB'
p1107
aS'1994'
p1108
aa(lp1109
S'SQU'
p1110
aS'RAV-ROB'
p1111
aS'1995'
p1112
aa(lp1113
S'SQU'
p1114
aS'RAV-ROB'
p1115
aS'1996'
p1116
aa(lp1117
S'SQU'
p1118
aS'RAV-ROB'
p1119
aS'1997'
p1120
aa(lp1121
S'SQU'
p1122
aS'RAV-ROB'
p1123
aS'2016'
p1124
aa(lp1125
S'SQU'
p1126
aS'RAV-ROB'
p1127
aS'1992'
p1128
aa(lp1129
S'SQU'
p1130
aS'RAV-ROB'
p1131
aS'1993'
p1132
aa(lp1133
S'SQU'
p1134
aS'RAV-ROB'
p1135
aS'1994'
p1136
aa(lp1137
S'SQU'
p1138
aS'RAV-ROB'
p1139
aS'1992'
p1140
aa(lp1141
S'SQU'
p1142
aS'RAV-ROB'
p1143
aS'1993'
p1144
aa(lp1145
S'SQU'
p1146
aS'RAV-ROB'
p1147
aS'1994'
p1148
aa(lp1149
S'SQU'
p1150
aS'RAV-ROB'
p1151
aS'2018'
p1152
aa(lp1153
S'SQU'
p1154
aS'RAV-ROB'
p1155
aS'1992'
p1156
aa(lp1157
S'SQU'
p1158
aS'RAV-ROB'
p1159
aS'2000'
p1160
aa(lp1161
S'SQU'
p1162
aS'RAV-ROB'
p1163
aS'1988'
p1164
aa(lp1165
S'SQU'
p1166
aS'RE'
p1167
aS'1990'
p1168
aa(lp1169
S'SQU'
p1170
aS'RE'
p1171
aS'1993'
p1172
aa(lp1173
S'SQU'
p1174
aS'RM'
p1175
aS'1992'
p1176
aa(lp1177
S'SQU'
p1178
aS'RM-FED'
p1179
aS'1977'
p1180
aa(lp1181
S'SQU'
p1182
aS'RMPIA'
p1183
aS'2000'
p1184
aa(lp1185
S'SQU'
p1186
aS'RMPIA'
p1187
aS'2000'
p1188
aa(lp1189
S'SQU'
p1190
aS'SAB'
p1191
aS'1989'
p1192
aa(lp1193
S'SQU'
p1194
aS'SASS'
p1195
aS'1981'
p1196
aa(lp1197
S'SQU'
p1198
aS'SEG'
p1199
aS'2012'
p1200
aa(lp1201
S'SQU'
p1202
aS'SIENA-EMMAS'
p1203
aS'2018'
p1204
aa(lp1205
S'SQU'
p1206
aS'TA'
p1207
aS'2000'
p1208
aa(lp1209
S'SQU'
p1210
aS'TA'
p1211
aS'2006'
p1212
aa(lp1213
S'SQU'
p1214
aS'TN-ITAS'
p1215
aS'2008'
p1216
aa(lp1217
S'SQU'
p1218
aS'TN-ITAS'
p1219
aS'2011'
p1220
aa(lp1221
S'SQU'
p1222
aS'TN-ITAS'
p1223
aS'2013'
p1224
aa(lp1225
S'SQU'
p1226
aS'TN-ITAS'
p1227
aS'2015'
p1228
aa(lp1229
S'SQU'
p1230
aS'TN-ITAS'
p1231
aS'2010'
p1232
aa(lp1233
S'SQU'
p1234
aS'TN-ITAS'
p1235
aS'2012'
p1236
aa(lp1237
S'SQU'
p1238
aS'TN-ITAS'
p1239
aS'2013'
p1240
aa(lp1241
S'SQU'
p1242
aS'TN-ITAS'
p1243
aS'2009'
p1244
aa(lp1245
S'SQU'
p1246
aS'TN-ITAS'
p1247
aS'2010'
p1248
aa(lp1249
S'SQU'
p1250
aS'TN-ITAS'
p1251
aS'2011'
p1252
aa(lp1253
S'SQU'
p1254
aS'TN-ITAS'
p1255
aS'2011'
p1256
aa(lp1257
S'SQU'
p1258
aS'TN-ITAS'
p1259
aS'2013'
p1260
aa(lp1261
S'SQU'
p1262
aS'TN-ITAS'
p1263
aS'2009'
p1264
aa(lp1265
S'SQU'
p1266
aS'TN-ITAS'
p1267
aS'2010'
p1268
aa(lp1269
S'SQU'
p1270
aS'TN-ITAS'
p1271
aS'2011'
p1272
aa(lp1273
S'SQU'
p1274
aS'TN-ITAS'
p1275
aS'2012'
p1276
aa(lp1277
S'SQU'
p1278
aS'TN-ITAS'
p1279
aS'2011'
p1280
aa(lp1281
S'SQU'
p1282
aS'TN-ITAS'
p1283
aS'2014'
p1284
aa(lp1285
S'SQU'
p1286
aS'TN-ITAS'
p1287
aS'2010'
p1288
aa(lp1289
S'SQU'
p1290
aS'TN-ITAS'
p1291
aS'2006'
p1292
aa(lp1293
S'SQU'
p1294
aS'TO'
p1295
aS'1979'
p1296
aa(lp1297
S'SQU'
p1298
aS'TO'
p1299
aS'1980'
p1300
aa(lp1301
S'SQU'
p1302
aS'TO'
p1303
aS'1981'
p1304
aa(lp1305
S'SQU'
p1306
aS'TO'
p1307
aS'1984'
p1308
aa(lp1309
S'SQU'
p1310
aS'TO'
p1311
aS'2001'
p1312
aa(lp1313
S'SQU'
p1314
aS'TO'
p1315
aS'1984'
p1316
aa(lp1317
S'SQU'
p1318
aS'TO'
p1319
aS'1980'
p1320
aa(lp1321
S'SQU'
p1322
aS'TS'
p1323
aS'2003'
p1324
aa(lp1325
S'SQU'
p1326
aS'TV'
p1327
aS'1994'
p1328
aa(lp1329
S'SQU'
p1330
aS'TV'
p1331
aS'1996'
p1332
aa(lp1333
S'SQU'
p1334
aS'TV'
p1335
aS'1998'
p1336
aa(lp1337
S'SQU'
p1338
aS'TV'
p1339
aS'1999'
p1340
aa(lp1341
S'SQU'
p1342
aS'TV'
p1343
aS'2001'
p1344
aa(lp1345
S'SQU'
p1346
aS'TV'
p1347
aS'2003'
p1348
aa(lp1349
S'SQU'
p1350
aS'TV'
p1351
aS'2004'
p1352
aa(lp1353
S'SQU'
p1354
aS'TV'
p1355
aS'2005'
p1356
aa(lp1357
S'SQU'
p1358
aS'TV'
p1359
aS'2007'
p1360
aa(lp1361
S'SQU'
p1362
aS'TV'
p1363
aS'1988'
p1364
aa(lp1365
S'SQU'
p1366
aS'TV'
p1367
aS'1993'
p1368
aa(lp1369
S'SQU'
p1370
aS'TV'
p1371
aS'2000'
p1372
aa(lp1373
S'SQU'
p1374
aS'TV'
p1375
aS'2004'
p1376
aa(lp1377
S'SQU'
p1378
aS'TV'
p1379
aS'2005'
p1380
aa(lp1381
S'SQU'
p1382
aS'TV'
p1383
aS'2007'
p1384
aa(lp1385
S'SQU'
p1386
aS'TV'
p1387
aS'2006'
p1388
aa(lp1389
S'SQU'
p1390
aS'TV'
p1391
aS'1994'
p1392
aa(lp1393
S'SQU'
p1394
aS'TV'
p1395
aS'1991'
p1396
aa(lp1397
S'SQU'
p1398
aS'TV'
p1399
aS'1993'
p1400
aa(lp1401
S'SQU'
p1402
aS'TV'
p1403
aS'1998'
p1404
aa(lp1405
S'SQU'
p1406
aS'TV'
p1407
aS'2003'
p1408
aa(lp1409
S'SQU'
p1410
aS'TV'
p1411
aS'2011'
p1412
aa(lp1413
S'SQU'
p1414
aS'TV'
p1415
aS'1998'
p1416
aa(lp1417
S'SQU'
p1418
aS'TV'
p1419
aS'2000'
p1420
aa(lp1421
S'SQU'
p1422
aS'TV'
p1423
aS'2001'
p1424
aa(lp1425
S'SQU'
p1426
aS'TV'
p1427
aS'2003'
p1428
aa(lp1429
S'SQU'
p1430
aS'TV'
p1431
aS'2004'
p1432
aa(lp1433
S'SQU'
p1434
aS'TV'
p1435
aS'2005'
p1436
aa(lp1437
S'SQU'
p1438
aS'TV'
p1439
aS'2007'
p1440
aa(lp1441
S'SQU'
p1442
aS'TV'
p1443
aS'1994'
p1444
aa(lp1445
S'SQU'
p1446
aS'TV'
p1447
aS'1999'
p1448
aa(lp1449
S'SQU'
p1450
aS'TV'
p1451
aS'1993'
p1452
aa(lp1453
S'SQU'
p1454
aS'TV'
p1455
aS'1995'
p1456
aa(lp1457
S'SQU'
p1458
aS'TV'
p1459
aS'1997'
p1460
aa(lp1461
S'SQU'
p1462
aS'TV'
p1463
aS'2002'
p1464
aa(lp1465
S'SQU'
p1466
aS'TV'
p1467
aS'2004'
p1468
aa(lp1469
S'SQU'
p1470
aS'TV'
p1471
aS'2008'
p1472
aa(lp1473
S'SQU'
p1474
aS'TV'
p1475
aS'2009'
p1476
aa(lp1477
S'SQU'
p1478
aS'TV'
p1479
aS'2000'
p1480
aa(lp1481
S'SQU'
p1482
aS'TV'
p1483
aS'2008'
p1484
aa(lp1485
S'SQU'
p1486
aS'TV'
p1487
aS'2009'
p1488
aa(lp1489
S'SQU'
p1490
aS'TV'
p1491
aS'2011'
p1492
aa(lp1493
S'SQU'
p1494
aS'TV'
p1495
aS'1995'
p1496
aa(lp1497
S'SQU'
p1498
aS'TV'
p1499
aS'1999'
p1500
aa(lp1501
S'SQU'
p1502
aS'TV'
p1503
aS'2000'
p1504
aa(lp1505
S'SQU'
p1506
aS'TV'
p1507
aS'2005'
p1508
aa(lp1509
S'SQU'
p1510
aS'TV'
p1511
aS'2008'
p1512
aa(lp1513
S'SQU'
p1514
aS'VIM'
p1515
aS'1985'
p1516
aa(lp1517
S'SQU'
p1518
aS'VIS'
p1519
aS'1992'
p1520
aa(lp1521
S'SQU'
p1522
aS'VIS'
p1523
aS'2005'
p1524
aa(lp1525
S'SQU'
p1526
aS'VRI'
p1527
aS'2004'
p1528
aa(lp1529
S'SQU'
p1530
aS'VRI'
p1531
aS'2004'
p1532
aa(lp1533
S'SQU'
p1534
aS'VRI'
p1535
aS'2008'
p1536
aa(lp1537
S'SQU'
p1538
aS'VRI'
p1539
aS'2016'
p1540
aa(lp1541
S'SQU'
p1542
aS'VV'
p1543
aS'2008'
p1544
aa(lp1545
S'SQU'
p1546
aS'VV'
p1547
aS'2003'
p1548
aa(lp1549
S'SQU'
p1550
aS'VV'
p1551
aS'2015'
p1552
aa(lp1553
S'SQU'
p1554
aS'VV'
p1555
aS'2016'
p1556
aa(lp1557
S'SQU'
p1558
aS'VV'
p1559
aS'2004'
p1560
aa.